
Praktikum_5_Template.elf:     file format elf32-avr

Sections:
Idx Name          Size      VMA       LMA       File off  Algn
  0 .text         00004166  00000000  00000000  00000094  2**1
                  CONTENTS, ALLOC, LOAD, READONLY, CODE
  1 .data         0000004e  00802000  00004166  000041fa  2**0
                  CONTENTS, ALLOC, LOAD, DATA
  2 .bss          000003c1  0080204e  0080204e  00004248  2**0
                  ALLOC
  3 .comment      0000005c  00000000  00000000  00004248  2**0
                  CONTENTS, READONLY
  4 .note.gnu.avr.deviceinfo 00000044  00000000  00000000  000042a4  2**2
                  CONTENTS, READONLY
  5 .debug_aranges 00000700  00000000  00000000  000042e8  2**3
                  CONTENTS, READONLY, DEBUGGING
  6 .debug_info   00015d43  00000000  00000000  000049e8  2**0
                  CONTENTS, READONLY, DEBUGGING
  7 .debug_abbrev 00005f4b  00000000  00000000  0001a72b  2**0
                  CONTENTS, READONLY, DEBUGGING
  8 .debug_line   0000b6a0  00000000  00000000  00020676  2**0
                  CONTENTS, READONLY, DEBUGGING
  9 .debug_frame  00001714  00000000  00000000  0002bd18  2**2
                  CONTENTS, READONLY, DEBUGGING
 10 .debug_str    00038c08  00000000  00000000  0002d42c  2**0
                  CONTENTS, READONLY, DEBUGGING
 11 .debug_loc    0000abfa  00000000  00000000  00066034  2**0
                  CONTENTS, READONLY, DEBUGGING
 12 .debug_ranges 00000908  00000000  00000000  00070c30  2**3
                  CONTENTS, READONLY, DEBUGGING
 13 .debug_macro  0000cccf  00000000  00000000  00071538  2**0
                  CONTENTS, READONLY, DEBUGGING

Disassembly of section .text:

00000000 <__vectors>:
       0:	50 c2       	rjmp	.+1184   	; 0x4a2 <__ctors_end>
       2:	00 00       	nop
       4:	6f c2       	rjmp	.+1246   	; 0x4e4 <__bad_interrupt>
       6:	00 00       	nop
       8:	6d c2       	rjmp	.+1242   	; 0x4e4 <__bad_interrupt>
       a:	00 00       	nop
       c:	6b c2       	rjmp	.+1238   	; 0x4e4 <__bad_interrupt>
       e:	00 00       	nop
      10:	69 c2       	rjmp	.+1234   	; 0x4e4 <__bad_interrupt>
      12:	00 00       	nop
      14:	67 c2       	rjmp	.+1230   	; 0x4e4 <__bad_interrupt>
      16:	00 00       	nop
      18:	65 c2       	rjmp	.+1226   	; 0x4e4 <__bad_interrupt>
      1a:	00 00       	nop
      1c:	63 c2       	rjmp	.+1222   	; 0x4e4 <__bad_interrupt>
      1e:	00 00       	nop
      20:	61 c2       	rjmp	.+1218   	; 0x4e4 <__bad_interrupt>
      22:	00 00       	nop
      24:	5f c2       	rjmp	.+1214   	; 0x4e4 <__bad_interrupt>
      26:	00 00       	nop
      28:	5d c2       	rjmp	.+1210   	; 0x4e4 <__bad_interrupt>
      2a:	00 00       	nop
      2c:	5b c2       	rjmp	.+1206   	; 0x4e4 <__bad_interrupt>
      2e:	00 00       	nop
      30:	59 c2       	rjmp	.+1202   	; 0x4e4 <__bad_interrupt>
      32:	00 00       	nop
      34:	57 c2       	rjmp	.+1198   	; 0x4e4 <__bad_interrupt>
      36:	00 00       	nop
      38:	0c 94 a3 0f 	jmp	0x1f46	; 0x1f46 <__vector_14>
      3c:	53 c2       	rjmp	.+1190   	; 0x4e4 <__bad_interrupt>
      3e:	00 00       	nop
      40:	51 c2       	rjmp	.+1186   	; 0x4e4 <__bad_interrupt>
      42:	00 00       	nop
      44:	4f c2       	rjmp	.+1182   	; 0x4e4 <__bad_interrupt>
      46:	00 00       	nop
      48:	4d c2       	rjmp	.+1178   	; 0x4e4 <__bad_interrupt>
      4a:	00 00       	nop
      4c:	4b c2       	rjmp	.+1174   	; 0x4e4 <__bad_interrupt>
      4e:	00 00       	nop
      50:	49 c2       	rjmp	.+1170   	; 0x4e4 <__bad_interrupt>
      52:	00 00       	nop
      54:	47 c2       	rjmp	.+1166   	; 0x4e4 <__bad_interrupt>
      56:	00 00       	nop
      58:	45 c2       	rjmp	.+1162   	; 0x4e4 <__bad_interrupt>
      5a:	00 00       	nop
      5c:	43 c2       	rjmp	.+1158   	; 0x4e4 <__bad_interrupt>
      5e:	00 00       	nop
      60:	41 c2       	rjmp	.+1154   	; 0x4e4 <__bad_interrupt>
      62:	00 00       	nop
      64:	3f c2       	rjmp	.+1150   	; 0x4e4 <__bad_interrupt>
      66:	00 00       	nop
      68:	3d c2       	rjmp	.+1146   	; 0x4e4 <__bad_interrupt>
      6a:	00 00       	nop
      6c:	3b c2       	rjmp	.+1142   	; 0x4e4 <__bad_interrupt>
      6e:	00 00       	nop
      70:	39 c2       	rjmp	.+1138   	; 0x4e4 <__bad_interrupt>
      72:	00 00       	nop
      74:	37 c2       	rjmp	.+1134   	; 0x4e4 <__bad_interrupt>
      76:	00 00       	nop
      78:	35 c2       	rjmp	.+1130   	; 0x4e4 <__bad_interrupt>
      7a:	00 00       	nop
      7c:	33 c2       	rjmp	.+1126   	; 0x4e4 <__bad_interrupt>
      7e:	00 00       	nop
      80:	31 c2       	rjmp	.+1122   	; 0x4e4 <__bad_interrupt>
      82:	00 00       	nop
      84:	2f c2       	rjmp	.+1118   	; 0x4e4 <__bad_interrupt>
      86:	00 00       	nop
      88:	2d c2       	rjmp	.+1114   	; 0x4e4 <__bad_interrupt>
      8a:	00 00       	nop
      8c:	2b c2       	rjmp	.+1110   	; 0x4e4 <__bad_interrupt>
      8e:	00 00       	nop
      90:	29 c2       	rjmp	.+1106   	; 0x4e4 <__bad_interrupt>
      92:	00 00       	nop
      94:	27 c2       	rjmp	.+1102   	; 0x4e4 <__bad_interrupt>
      96:	00 00       	nop
      98:	25 c2       	rjmp	.+1098   	; 0x4e4 <__bad_interrupt>
      9a:	00 00       	nop
      9c:	e9 c7       	rjmp	.+4050   	; 0x1070 <__vector_39>
      9e:	00 00       	nop
      a0:	0c 94 6a 08 	jmp	0x10d4	; 0x10d4 <__vector_40>
      a4:	0c 94 9c 08 	jmp	0x1138	; 0x1138 <__vector_41>
      a8:	0c 94 ce 08 	jmp	0x119c	; 0x119c <__vector_42>
      ac:	1b c2       	rjmp	.+1078   	; 0x4e4 <__bad_interrupt>
      ae:	00 00       	nop
      b0:	19 c2       	rjmp	.+1074   	; 0x4e4 <__bad_interrupt>
      b2:	00 00       	nop
      b4:	17 c2       	rjmp	.+1070   	; 0x4e4 <__bad_interrupt>
      b6:	00 00       	nop
      b8:	15 c2       	rjmp	.+1066   	; 0x4e4 <__bad_interrupt>
      ba:	00 00       	nop
      bc:	13 c2       	rjmp	.+1062   	; 0x4e4 <__bad_interrupt>
      be:	00 00       	nop
      c0:	11 c2       	rjmp	.+1058   	; 0x4e4 <__bad_interrupt>
      c2:	00 00       	nop
      c4:	0f c2       	rjmp	.+1054   	; 0x4e4 <__bad_interrupt>
      c6:	00 00       	nop
      c8:	0d c2       	rjmp	.+1050   	; 0x4e4 <__bad_interrupt>
      ca:	00 00       	nop
      cc:	0b c2       	rjmp	.+1046   	; 0x4e4 <__bad_interrupt>
      ce:	00 00       	nop
      d0:	09 c2       	rjmp	.+1042   	; 0x4e4 <__bad_interrupt>
      d2:	00 00       	nop
      d4:	07 c2       	rjmp	.+1038   	; 0x4e4 <__bad_interrupt>
      d6:	00 00       	nop
      d8:	05 c2       	rjmp	.+1034   	; 0x4e4 <__bad_interrupt>
      da:	00 00       	nop
      dc:	03 c2       	rjmp	.+1030   	; 0x4e4 <__bad_interrupt>
      de:	00 00       	nop
      e0:	01 c2       	rjmp	.+1026   	; 0x4e4 <__bad_interrupt>
      e2:	00 00       	nop
      e4:	ff c1       	rjmp	.+1022   	; 0x4e4 <__bad_interrupt>
      e6:	00 00       	nop
      e8:	fd c1       	rjmp	.+1018   	; 0x4e4 <__bad_interrupt>
      ea:	00 00       	nop
      ec:	fb c1       	rjmp	.+1014   	; 0x4e4 <__bad_interrupt>
      ee:	00 00       	nop
      f0:	f9 c1       	rjmp	.+1010   	; 0x4e4 <__bad_interrupt>
      f2:	00 00       	nop
      f4:	f7 c1       	rjmp	.+1006   	; 0x4e4 <__bad_interrupt>
      f6:	00 00       	nop
      f8:	f5 c1       	rjmp	.+1002   	; 0x4e4 <__bad_interrupt>
      fa:	00 00       	nop
      fc:	f3 c1       	rjmp	.+998    	; 0x4e4 <__bad_interrupt>
      fe:	00 00       	nop
     100:	f1 c1       	rjmp	.+994    	; 0x4e4 <__bad_interrupt>
     102:	00 00       	nop
     104:	ef c1       	rjmp	.+990    	; 0x4e4 <__bad_interrupt>
     106:	00 00       	nop
     108:	ed c1       	rjmp	.+986    	; 0x4e4 <__bad_interrupt>
     10a:	00 00       	nop
     10c:	eb c1       	rjmp	.+982    	; 0x4e4 <__bad_interrupt>
     10e:	00 00       	nop
     110:	e9 c1       	rjmp	.+978    	; 0x4e4 <__bad_interrupt>
     112:	00 00       	nop
     114:	e7 c1       	rjmp	.+974    	; 0x4e4 <__bad_interrupt>
     116:	00 00       	nop
     118:	e5 c1       	rjmp	.+970    	; 0x4e4 <__bad_interrupt>
     11a:	00 00       	nop
     11c:	e1 c6       	rjmp	.+3522   	; 0xee0 <__vector_71>
     11e:	00 00       	nop
     120:	11 c7       	rjmp	.+3618   	; 0xf44 <__vector_72>
     122:	00 00       	nop
     124:	41 c7       	rjmp	.+3714   	; 0xfa8 <__vector_73>
     126:	00 00       	nop
     128:	71 c7       	rjmp	.+3810   	; 0x100c <__vector_74>
     12a:	00 00       	nop
     12c:	db c1       	rjmp	.+950    	; 0x4e4 <__bad_interrupt>
     12e:	00 00       	nop
     130:	d9 c1       	rjmp	.+946    	; 0x4e4 <__bad_interrupt>
     132:	00 00       	nop
     134:	d7 c1       	rjmp	.+942    	; 0x4e4 <__bad_interrupt>
     136:	00 00       	nop
     138:	d5 c1       	rjmp	.+938    	; 0x4e4 <__bad_interrupt>
     13a:	00 00       	nop
     13c:	d3 c1       	rjmp	.+934    	; 0x4e4 <__bad_interrupt>
     13e:	00 00       	nop
     140:	d1 c1       	rjmp	.+930    	; 0x4e4 <__bad_interrupt>
     142:	00 00       	nop
     144:	cf c1       	rjmp	.+926    	; 0x4e4 <__bad_interrupt>
     146:	00 00       	nop
     148:	cd c1       	rjmp	.+922    	; 0x4e4 <__bad_interrupt>
     14a:	00 00       	nop
     14c:	cb c1       	rjmp	.+918    	; 0x4e4 <__bad_interrupt>
     14e:	00 00       	nop
     150:	c9 c1       	rjmp	.+914    	; 0x4e4 <__bad_interrupt>
     152:	00 00       	nop
     154:	c7 c1       	rjmp	.+910    	; 0x4e4 <__bad_interrupt>
     156:	00 00       	nop
     158:	c5 c1       	rjmp	.+906    	; 0x4e4 <__bad_interrupt>
     15a:	00 00       	nop
     15c:	c3 c1       	rjmp	.+902    	; 0x4e4 <__bad_interrupt>
     15e:	00 00       	nop
     160:	c1 c1       	rjmp	.+898    	; 0x4e4 <__bad_interrupt>
     162:	00 00       	nop
     164:	bf c1       	rjmp	.+894    	; 0x4e4 <__bad_interrupt>
     166:	00 00       	nop
     168:	bd c1       	rjmp	.+890    	; 0x4e4 <__bad_interrupt>
     16a:	00 00       	nop
     16c:	bb c1       	rjmp	.+886    	; 0x4e4 <__bad_interrupt>
     16e:	00 00       	nop
     170:	b9 c1       	rjmp	.+882    	; 0x4e4 <__bad_interrupt>
     172:	00 00       	nop
     174:	b7 c1       	rjmp	.+878    	; 0x4e4 <__bad_interrupt>
     176:	00 00       	nop
     178:	b5 c1       	rjmp	.+874    	; 0x4e4 <__bad_interrupt>
     17a:	00 00       	nop
     17c:	b3 c1       	rjmp	.+870    	; 0x4e4 <__bad_interrupt>
     17e:	00 00       	nop
     180:	b1 c1       	rjmp	.+866    	; 0x4e4 <__bad_interrupt>
     182:	00 00       	nop
     184:	af c1       	rjmp	.+862    	; 0x4e4 <__bad_interrupt>
     186:	00 00       	nop
     188:	ad c1       	rjmp	.+858    	; 0x4e4 <__bad_interrupt>
     18a:	00 00       	nop
     18c:	ab c1       	rjmp	.+854    	; 0x4e4 <__bad_interrupt>
     18e:	00 00       	nop
     190:	a9 c1       	rjmp	.+850    	; 0x4e4 <__bad_interrupt>
     192:	00 00       	nop
     194:	a7 c1       	rjmp	.+846    	; 0x4e4 <__bad_interrupt>
     196:	00 00       	nop
     198:	a5 c1       	rjmp	.+842    	; 0x4e4 <__bad_interrupt>
     19a:	00 00       	nop
     19c:	a3 c1       	rjmp	.+838    	; 0x4e4 <__bad_interrupt>
     19e:	00 00       	nop
     1a0:	a1 c1       	rjmp	.+834    	; 0x4e4 <__bad_interrupt>
     1a2:	00 00       	nop
     1a4:	9f c1       	rjmp	.+830    	; 0x4e4 <__bad_interrupt>
     1a6:	00 00       	nop
     1a8:	9d c1       	rjmp	.+826    	; 0x4e4 <__bad_interrupt>
     1aa:	00 00       	nop
     1ac:	9b c1       	rjmp	.+822    	; 0x4e4 <__bad_interrupt>
     1ae:	00 00       	nop
     1b0:	99 c1       	rjmp	.+818    	; 0x4e4 <__bad_interrupt>
     1b2:	00 00       	nop
     1b4:	97 c1       	rjmp	.+814    	; 0x4e4 <__bad_interrupt>
     1b6:	00 00       	nop
     1b8:	95 c1       	rjmp	.+810    	; 0x4e4 <__bad_interrupt>
     1ba:	00 00       	nop
     1bc:	93 c1       	rjmp	.+806    	; 0x4e4 <__bad_interrupt>
     1be:	00 00       	nop
     1c0:	91 c1       	rjmp	.+802    	; 0x4e4 <__bad_interrupt>
     1c2:	00 00       	nop
     1c4:	8f c1       	rjmp	.+798    	; 0x4e4 <__bad_interrupt>
     1c6:	00 00       	nop
     1c8:	8d c1       	rjmp	.+794    	; 0x4e4 <__bad_interrupt>
     1ca:	00 00       	nop
     1cc:	8b c1       	rjmp	.+790    	; 0x4e4 <__bad_interrupt>
     1ce:	00 00       	nop
     1d0:	89 c1       	rjmp	.+786    	; 0x4e4 <__bad_interrupt>
     1d2:	00 00       	nop
     1d4:	87 c1       	rjmp	.+782    	; 0x4e4 <__bad_interrupt>
     1d6:	00 00       	nop
     1d8:	85 c1       	rjmp	.+778    	; 0x4e4 <__bad_interrupt>
     1da:	00 00       	nop
     1dc:	83 c1       	rjmp	.+774    	; 0x4e4 <__bad_interrupt>
     1de:	00 00       	nop
     1e0:	81 c1       	rjmp	.+770    	; 0x4e4 <__bad_interrupt>
     1e2:	00 00       	nop
     1e4:	7f c1       	rjmp	.+766    	; 0x4e4 <__bad_interrupt>
     1e6:	00 00       	nop
     1e8:	7d c1       	rjmp	.+762    	; 0x4e4 <__bad_interrupt>
     1ea:	00 00       	nop
     1ec:	7b c1       	rjmp	.+758    	; 0x4e4 <__bad_interrupt>
     1ee:	00 00       	nop
     1f0:	79 c1       	rjmp	.+754    	; 0x4e4 <__bad_interrupt>
     1f2:	00 00       	nop
     1f4:	77 c1       	rjmp	.+750    	; 0x4e4 <__bad_interrupt>
     1f6:	00 00       	nop
     1f8:	75 c1       	rjmp	.+746    	; 0x4e4 <__bad_interrupt>
     1fa:	00 00       	nop
     1fc:	a6 18       	sub	r10, r6
     1fe:	a6 18       	sub	r10, r6
     200:	a6 18       	sub	r10, r6
     202:	dc 18       	sub	r13, r12
     204:	cc 18       	sub	r12, r12
     206:	d9 18       	sub	r13, r9
     208:	a6 18       	sub	r10, r6
     20a:	a6 18       	sub	r10, r6
     20c:	dc 18       	sub	r13, r12
     20e:	cc 18       	sub	r12, r12

00000210 <__trampolines_end>:
     210:	00 00       	nop
     212:	00 00       	nop
     214:	00 00       	nop
     216:	00 20       	and	r0, r0
     218:	20 20       	and	r2, r0
     21a:	20 20       	and	r2, r0
     21c:	00 20       	and	r0, r0
     21e:	50 50       	subi	r21, 0x00	; 0
     220:	50 00       	.word	0x0050	; ????
     222:	00 00       	nop
     224:	00 50       	subi	r16, 0x00	; 0
     226:	50 f8       	bld	r5, 0
     228:	50 f8       	bld	r5, 0
     22a:	50 50       	subi	r21, 0x00	; 0
     22c:	20 78       	andi	r18, 0x80	; 128
     22e:	a0 70       	andi	r26, 0x00	; 0
     230:	28 f0       	brcs	.+10     	; 0x23c <__trampolines_end+0x2c>
     232:	20 c0       	rjmp	.+64     	; 0x274 <__trampolines_end+0x64>
     234:	c8 10       	cpse	r12, r8
     236:	20 40       	sbci	r18, 0x00	; 0
     238:	98 18       	sub	r9, r8
     23a:	60 90 a0 40 	lds	r6, 0x40A0	; 0x8040a0 <__bss_end+0x1c91>
     23e:	a8 90       	.word	0x90a8	; ????
     240:	68 60       	ori	r22, 0x08	; 8
     242:	20 40       	sbci	r18, 0x00	; 0
     244:	00 00       	nop
     246:	00 00       	nop
     248:	10 20       	and	r1, r0
     24a:	40 40       	sbci	r20, 0x00	; 0
     24c:	40 20       	and	r4, r0
     24e:	10 40       	sbci	r17, 0x00	; 0
     250:	20 10       	cpse	r2, r0
     252:	10 10       	cpse	r1, r0
     254:	20 40       	sbci	r18, 0x00	; 0
     256:	00 50       	subi	r16, 0x00	; 0
     258:	20 f8       	bld	r2, 0
     25a:	20 50       	subi	r18, 0x00	; 0
     25c:	00 00       	nop
     25e:	20 20       	and	r2, r0
     260:	f8 20       	and	r15, r8
     262:	20 00       	.word	0x0020	; ????
     264:	00 00       	nop
     266:	00 00       	nop
     268:	60 20       	and	r6, r0
     26a:	40 00       	.word	0x0040	; ????
     26c:	00 00       	nop
     26e:	f8 00       	.word	0x00f8	; ????
     270:	00 00       	nop
     272:	00 00       	nop
     274:	00 00       	nop
     276:	00 60       	ori	r16, 0x00	; 0
     278:	60 00       	.word	0x0060	; ????
     27a:	08 10       	cpse	r0, r8
     27c:	20 40       	sbci	r18, 0x00	; 0
     27e:	80 00       	.word	0x0080	; ????
     280:	70 88       	ldd	r7, Z+16	; 0x10
     282:	98 a8       	ldd	r9, Y+48	; 0x30
     284:	c8 88       	ldd	r12, Y+16	; 0x10
     286:	70 20       	and	r7, r0
     288:	60 20       	and	r6, r0
     28a:	20 20       	and	r2, r0
     28c:	20 70       	andi	r18, 0x00	; 0
     28e:	70 88       	ldd	r7, Z+16	; 0x10
     290:	08 10       	cpse	r0, r8
     292:	20 40       	sbci	r18, 0x00	; 0
     294:	f8 f8       	.word	0xf8f8	; ????
     296:	10 20       	and	r1, r0
     298:	10 08       	sbc	r1, r0
     29a:	88 70       	andi	r24, 0x08	; 8
     29c:	10 30       	cpi	r17, 0x00	; 0
     29e:	50 90 f8 10 	lds	r5, 0x10F8	; 0x8010f8 <__TEXT_REGION_LENGTH__+0x7010f8>
     2a2:	10 f8       	bld	r1, 0
     2a4:	80 f0       	brcs	.+32     	; 0x2c6 <__trampolines_end+0xb6>
     2a6:	08 08       	sbc	r0, r8
     2a8:	88 70       	andi	r24, 0x08	; 8
     2aa:	30 40       	sbci	r19, 0x00	; 0
     2ac:	80 f0       	brcs	.+32     	; 0x2ce <__trampolines_end+0xbe>
     2ae:	88 88       	ldd	r8, Y+16	; 0x10
     2b0:	70 f8       	bld	r7, 0
     2b2:	08 10       	cpse	r0, r8
     2b4:	20 40       	sbci	r18, 0x00	; 0
     2b6:	40 40       	sbci	r20, 0x00	; 0
     2b8:	70 88       	ldd	r7, Z+16	; 0x10
     2ba:	88 70       	andi	r24, 0x08	; 8
     2bc:	88 88       	ldd	r8, Y+16	; 0x10
     2be:	70 70       	andi	r23, 0x00	; 0
     2c0:	88 88       	ldd	r8, Y+16	; 0x10
     2c2:	78 08       	sbc	r7, r8
     2c4:	10 60       	ori	r17, 0x00	; 0
     2c6:	00 60       	ori	r16, 0x00	; 0
     2c8:	60 00       	.word	0x0060	; ????
     2ca:	60 60       	ori	r22, 0x00	; 0
     2cc:	00 00       	nop
     2ce:	60 60       	ori	r22, 0x00	; 0
     2d0:	00 60       	ori	r16, 0x00	; 0
     2d2:	20 40       	sbci	r18, 0x00	; 0
     2d4:	08 10       	cpse	r0, r8
     2d6:	20 40       	sbci	r18, 0x00	; 0
     2d8:	20 10       	cpse	r2, r0
     2da:	08 00       	.word	0x0008	; ????
     2dc:	00 f8       	bld	r0, 0
     2de:	00 f8       	bld	r0, 0
     2e0:	00 00       	nop
     2e2:	80 40       	sbci	r24, 0x00	; 0
     2e4:	20 10       	cpse	r2, r0
     2e6:	20 40       	sbci	r18, 0x00	; 0
     2e8:	80 70       	andi	r24, 0x00	; 0
     2ea:	88 08       	sbc	r8, r8
     2ec:	10 20       	and	r1, r0
     2ee:	00 20       	and	r0, r0
     2f0:	70 88       	ldd	r7, Z+16	; 0x10
     2f2:	08 68       	ori	r16, 0x88	; 136
     2f4:	a8 a8       	ldd	r10, Y+48	; 0x30
     2f6:	70 70       	andi	r23, 0x00	; 0
     2f8:	88 88       	ldd	r8, Y+16	; 0x10
     2fa:	88 f8       	.word	0xf888	; ????
     2fc:	88 88       	ldd	r8, Y+16	; 0x10
     2fe:	f0 88       	ldd	r15, Z+16	; 0x10
     300:	88 f0       	brcs	.+34     	; 0x324 <__trampolines_end+0x114>
     302:	88 88       	ldd	r8, Y+16	; 0x10
     304:	f0 70       	andi	r31, 0x00	; 0
     306:	88 80       	ld	r8, Y
     308:	80 80       	ld	r8, Z
     30a:	88 70       	andi	r24, 0x08	; 8
     30c:	e0 90 88 88 	lds	r14, 0x8888	; 0x808888 <__bss_end+0x6479>
     310:	88 90       	.word	0x9088	; ????
     312:	e0 f8       	bld	r14, 0
     314:	80 80       	ld	r8, Z
     316:	f0 80       	ld	r15, Z
     318:	80 f8       	bld	r8, 0
     31a:	f8 80       	ld	r15, Y
     31c:	80 e0       	ldi	r24, 0x00	; 0
     31e:	80 80       	ld	r8, Z
     320:	80 70       	andi	r24, 0x00	; 0
     322:	88 80       	ld	r8, Y
     324:	80 98       	cbi	0x10, 0	; 16
     326:	88 70       	andi	r24, 0x08	; 8
     328:	88 88       	ldd	r8, Y+16	; 0x10
     32a:	88 f8       	.word	0xf888	; ????
     32c:	88 88       	ldd	r8, Y+16	; 0x10
     32e:	88 70       	andi	r24, 0x08	; 8
     330:	20 20       	and	r2, r0
     332:	20 20       	and	r2, r0
     334:	20 70       	andi	r18, 0x00	; 0
     336:	38 10       	cpse	r3, r8
     338:	10 10       	cpse	r1, r0
     33a:	10 90 60 88 	lds	r1, 0x8860	; 0x808860 <__bss_end+0x6451>
     33e:	90 a0       	ldd	r9, Z+32	; 0x20
     340:	c0 a0       	ldd	r12, Z+32	; 0x20
     342:	90 88       	ldd	r9, Z+16	; 0x10
     344:	80 80       	ld	r8, Z
     346:	80 80       	ld	r8, Z
     348:	80 80       	ld	r8, Z
     34a:	f8 88       	ldd	r15, Y+16	; 0x10
     34c:	d8 a8       	ldd	r13, Y+48	; 0x30
     34e:	88 88       	ldd	r8, Y+16	; 0x10
     350:	88 88       	ldd	r8, Y+16	; 0x10
     352:	88 88       	ldd	r8, Y+16	; 0x10
     354:	c8 a8       	ldd	r12, Y+48	; 0x30
     356:	98 88       	ldd	r9, Y+16	; 0x10
     358:	88 70       	andi	r24, 0x08	; 8
     35a:	88 88       	ldd	r8, Y+16	; 0x10
     35c:	88 88       	ldd	r8, Y+16	; 0x10
     35e:	88 70       	andi	r24, 0x08	; 8
     360:	f0 88       	ldd	r15, Z+16	; 0x10
     362:	88 f0       	brcs	.+34     	; 0x386 <__trampolines_end+0x176>
     364:	80 80       	ld	r8, Z
     366:	80 70       	andi	r24, 0x00	; 0
     368:	88 88       	ldd	r8, Y+16	; 0x10
     36a:	88 a8       	ldd	r8, Y+48	; 0x30
     36c:	90 68       	ori	r25, 0x80	; 128
     36e:	f0 88       	ldd	r15, Z+16	; 0x10
     370:	88 f0       	brcs	.+34     	; 0x394 <__trampolines_end+0x184>
     372:	a0 90 88 78 	lds	r10, 0x7888	; 0x807888 <__bss_end+0x5479>
     376:	80 80       	ld	r8, Z
     378:	70 08       	sbc	r7, r0
     37a:	08 f0       	brcs	.+2      	; 0x37e <__trampolines_end+0x16e>
     37c:	f8 20       	and	r15, r8
     37e:	20 20       	and	r2, r0
     380:	20 20       	and	r2, r0
     382:	20 88       	ldd	r2, Z+16	; 0x10
     384:	88 88       	ldd	r8, Y+16	; 0x10
     386:	88 88       	ldd	r8, Y+16	; 0x10
     388:	88 70       	andi	r24, 0x08	; 8
     38a:	88 88       	ldd	r8, Y+16	; 0x10
     38c:	88 88       	ldd	r8, Y+16	; 0x10
     38e:	88 50       	subi	r24, 0x08	; 8
     390:	20 88       	ldd	r2, Z+16	; 0x10
     392:	88 88       	ldd	r8, Y+16	; 0x10
     394:	a8 a8       	ldd	r10, Y+48	; 0x30
     396:	d8 88       	ldd	r13, Y+16	; 0x10
     398:	88 88       	ldd	r8, Y+16	; 0x10
     39a:	50 20       	and	r5, r0
     39c:	50 88       	ldd	r5, Z+16	; 0x10
     39e:	88 88       	ldd	r8, Y+16	; 0x10
     3a0:	88 50       	subi	r24, 0x08	; 8
     3a2:	20 20       	and	r2, r0
     3a4:	20 20       	and	r2, r0
     3a6:	f8 08       	sbc	r15, r8
     3a8:	10 20       	and	r1, r0
     3aa:	40 80       	ld	r4, Z
     3ac:	f8 38       	cpi	r31, 0x88	; 136
     3ae:	20 20       	and	r2, r0
     3b0:	20 20       	and	r2, r0
     3b2:	20 38       	cpi	r18, 0x80	; 128
     3b4:	00 80       	ld	r0, Z
     3b6:	40 20       	and	r4, r0
     3b8:	10 08       	sbc	r1, r0
     3ba:	00 e0       	ldi	r16, 0x00	; 0
     3bc:	20 20       	and	r2, r0
     3be:	20 20       	and	r2, r0
     3c0:	20 e0       	ldi	r18, 0x00	; 0
     3c2:	20 50       	subi	r18, 0x00	; 0
     3c4:	88 00       	.word	0x0088	; ????
	...
     3ce:	00 f8       	bld	r0, 0
     3d0:	40 20       	and	r4, r0
     3d2:	10 00       	.word	0x0010	; ????
     3d4:	00 00       	nop
     3d6:	00 00       	nop
     3d8:	00 70       	andi	r16, 0x00	; 0
     3da:	08 78       	andi	r16, 0x88	; 136
     3dc:	88 78       	andi	r24, 0x88	; 136
     3de:	80 80       	ld	r8, Z
     3e0:	b0 c8       	rjmp	.-3744   	; 0xfffff542 <__eeprom_end+0xff7ef542>
     3e2:	88 88       	ldd	r8, Y+16	; 0x10
     3e4:	f0 00       	.word	0x00f0	; ????
     3e6:	00 70       	andi	r16, 0x00	; 0
     3e8:	80 80       	ld	r8, Z
     3ea:	88 70       	andi	r24, 0x08	; 8
     3ec:	08 08       	sbc	r0, r8
     3ee:	68 98       	cbi	0x0d, 0	; 13
     3f0:	88 88       	ldd	r8, Y+16	; 0x10
     3f2:	78 00       	.word	0x0078	; ????
     3f4:	00 70       	andi	r16, 0x00	; 0
     3f6:	88 f8       	.word	0xf888	; ????
     3f8:	80 70       	andi	r24, 0x00	; 0
     3fa:	30 48       	sbci	r19, 0x80	; 128
     3fc:	40 e0       	ldi	r20, 0x00	; 0
     3fe:	40 40       	sbci	r20, 0x00	; 0
     400:	40 00       	.word	0x0040	; ????
     402:	00 78       	andi	r16, 0x80	; 128
     404:	88 78       	andi	r24, 0x88	; 136
     406:	08 30       	cpi	r16, 0x08	; 8
     408:	80 80       	ld	r8, Z
     40a:	b0 c8       	rjmp	.-3744   	; 0xfffff56c <__eeprom_end+0xff7ef56c>
     40c:	88 88       	ldd	r8, Y+16	; 0x10
     40e:	88 20       	and	r8, r8
     410:	00 60       	ori	r16, 0x00	; 0
     412:	20 20       	and	r2, r0
     414:	20 70       	andi	r18, 0x00	; 0
     416:	10 00       	.word	0x0010	; ????
     418:	30 10       	cpse	r3, r0
     41a:	10 90 60 40 	lds	r1, 0x4060	; 0x804060 <__bss_end+0x1c51>
     41e:	40 48       	sbci	r20, 0x80	; 128
     420:	50 60       	ori	r21, 0x00	; 0
     422:	50 48       	sbci	r21, 0x80	; 128
     424:	60 20       	and	r6, r0
     426:	20 20       	and	r2, r0
     428:	20 20       	and	r2, r0
     42a:	70 00       	.word	0x0070	; ????
     42c:	00 d0       	rcall	.+0      	; 0x42e <__LOCK_REGION_LENGTH__+0x2e>
     42e:	a8 a8       	ldd	r10, Y+48	; 0x30
     430:	88 88       	ldd	r8, Y+16	; 0x10
     432:	00 00       	nop
     434:	b0 c8       	rjmp	.-3744   	; 0xfffff596 <__eeprom_end+0xff7ef596>
     436:	88 88       	ldd	r8, Y+16	; 0x10
     438:	88 00       	.word	0x0088	; ????
     43a:	00 70       	andi	r16, 0x00	; 0
     43c:	88 88       	ldd	r8, Y+16	; 0x10
     43e:	88 70       	andi	r24, 0x08	; 8
     440:	00 00       	nop
     442:	f0 88       	ldd	r15, Z+16	; 0x10
     444:	f0 80       	ld	r15, Z
     446:	80 00       	.word	0x0080	; ????
     448:	00 68       	ori	r16, 0x80	; 128
     44a:	98 78       	andi	r25, 0x88	; 136
     44c:	08 08       	sbc	r0, r8
     44e:	00 00       	nop
     450:	b0 c8       	rjmp	.-3744   	; 0xfffff5b2 <__eeprom_end+0xff7ef5b2>
     452:	80 80       	ld	r8, Z
     454:	80 00       	.word	0x0080	; ????
     456:	00 70       	andi	r16, 0x00	; 0
     458:	80 70       	andi	r24, 0x00	; 0
     45a:	08 f0       	brcs	.+2      	; 0x45e <__LOCK_REGION_LENGTH__+0x5e>
     45c:	40 40       	sbci	r20, 0x00	; 0
     45e:	e0 40       	sbci	r30, 0x00	; 0
     460:	40 48       	sbci	r20, 0x80	; 128
     462:	30 00       	.word	0x0030	; ????
     464:	00 88       	ldd	r0, Z+16	; 0x10
     466:	88 88       	ldd	r8, Y+16	; 0x10
     468:	98 68       	ori	r25, 0x88	; 136
     46a:	00 00       	nop
     46c:	88 88       	ldd	r8, Y+16	; 0x10
     46e:	88 50       	subi	r24, 0x08	; 8
     470:	20 00       	.word	0x0020	; ????
     472:	00 88       	ldd	r0, Z+16	; 0x10
     474:	88 a8       	ldd	r8, Y+48	; 0x30
     476:	a8 50       	subi	r26, 0x08	; 8
     478:	00 00       	nop
     47a:	88 50       	subi	r24, 0x08	; 8
     47c:	20 50       	subi	r18, 0x00	; 0
     47e:	88 00       	.word	0x0088	; ????
     480:	00 88       	ldd	r0, Z+16	; 0x10
     482:	88 78       	andi	r24, 0x88	; 136
     484:	08 70       	andi	r16, 0x08	; 8
     486:	00 00       	nop
     488:	f8 10       	cpse	r15, r8
     48a:	20 40       	sbci	r18, 0x00	; 0
     48c:	f8 10       	cpse	r15, r8
     48e:	20 20       	and	r2, r0
     490:	40 20       	and	r4, r0
     492:	20 10       	cpse	r2, r0
     494:	20 20       	and	r2, r0
     496:	20 20       	and	r2, r0
     498:	20 20       	and	r2, r0
     49a:	20 40       	sbci	r18, 0x00	; 0
     49c:	20 20       	and	r2, r0
     49e:	10 20       	and	r1, r0
     4a0:	20 40       	sbci	r18, 0x00	; 0

000004a2 <__ctors_end>:
     4a2:	11 24       	eor	r1, r1
     4a4:	1f be       	out	0x3f, r1	; 63
     4a6:	cf ef       	ldi	r28, 0xFF	; 255
     4a8:	cd bf       	out	0x3d, r28	; 61
     4aa:	df e5       	ldi	r29, 0x5F	; 95
     4ac:	de bf       	out	0x3e, r29	; 62
     4ae:	00 e0       	ldi	r16, 0x00	; 0
     4b0:	0c bf       	out	0x3c, r16	; 60

000004b2 <__do_copy_data>:
     4b2:	10 e2       	ldi	r17, 0x20	; 32
     4b4:	a0 e0       	ldi	r26, 0x00	; 0
     4b6:	b0 e2       	ldi	r27, 0x20	; 32
     4b8:	e6 e6       	ldi	r30, 0x66	; 102
     4ba:	f1 e4       	ldi	r31, 0x41	; 65
     4bc:	00 e0       	ldi	r16, 0x00	; 0
     4be:	0b bf       	out	0x3b, r16	; 59
     4c0:	02 c0       	rjmp	.+4      	; 0x4c6 <__do_copy_data+0x14>
     4c2:	07 90       	elpm	r0, Z+
     4c4:	0d 92       	st	X+, r0
     4c6:	ae 34       	cpi	r26, 0x4E	; 78
     4c8:	b1 07       	cpc	r27, r17
     4ca:	d9 f7       	brne	.-10     	; 0x4c2 <__do_copy_data+0x10>

000004cc <__do_clear_bss>:
     4cc:	24 e2       	ldi	r18, 0x24	; 36
     4ce:	ae e4       	ldi	r26, 0x4E	; 78
     4d0:	b0 e2       	ldi	r27, 0x20	; 32
     4d2:	01 c0       	rjmp	.+2      	; 0x4d6 <.do_clear_bss_start>

000004d4 <.do_clear_bss_loop>:
     4d4:	1d 92       	st	X+, r1

000004d6 <.do_clear_bss_start>:
     4d6:	af 30       	cpi	r26, 0x0F	; 15
     4d8:	b2 07       	cpc	r27, r18
     4da:	e1 f7       	brne	.-8      	; 0x4d4 <.do_clear_bss_loop>
     4dc:	0e 94 27 1b 	call	0x364e	; 0x364e <main>
     4e0:	0c 94 b1 20 	jmp	0x4162	; 0x4162 <_exit>

000004e4 <__bad_interrupt>:
     4e4:	8d cd       	rjmp	.-1254   	; 0x0 <__vectors>

000004e6 <__portable_avr_delay_cycles>:
     4e6:	61 50       	subi	r22, 0x01	; 1
     4e8:	71 09       	sbc	r23, r1
     4ea:	81 09       	sbc	r24, r1
     4ec:	91 09       	sbc	r25, r1
     4ee:	d9 f7       	brne	.-10     	; 0x4e6 <__portable_avr_delay_cycles>
     4f0:	08 95       	ret

000004f2 <st7565r_init>:
     4f2:	bf 92       	push	r11
     4f4:	cf 92       	push	r12
     4f6:	df 92       	push	r13
     4f8:	ef 92       	push	r14
     4fa:	ff 92       	push	r15
     4fc:	0f 93       	push	r16
     4fe:	1f 93       	push	r17
     500:	cf 93       	push	r28
     502:	df 93       	push	r29
     504:	1f 92       	push	r1
     506:	cd b7       	in	r28, 0x3d	; 61
     508:	de b7       	in	r29, 0x3e	; 62
     50a:	00 e0       	ldi	r16, 0x00	; 0
     50c:	16 e0       	ldi	r17, 0x06	; 6
     50e:	68 94       	set
     510:	ff 24       	eor	r15, r15
     512:	f3 f8       	bld	r15, 3
     514:	f8 01       	movw	r30, r16
     516:	f6 82       	std	Z+6, r15	; 0x06
     518:	63 e0       	ldi	r22, 0x03	; 3
     51a:	70 e0       	ldi	r23, 0x00	; 0
     51c:	80 e0       	ldi	r24, 0x00	; 0
     51e:	90 e0       	ldi	r25, 0x00	; 0
     520:	e2 df       	rcall	.-60     	; 0x4e6 <__portable_avr_delay_cycles>
     522:	f8 01       	movw	r30, r16
     524:	f5 82       	std	Z+5, r15	; 0x05
     526:	63 e0       	ldi	r22, 0x03	; 3
     528:	70 e0       	ldi	r23, 0x00	; 0
     52a:	80 e0       	ldi	r24, 0x00	; 0
     52c:	90 e0       	ldi	r25, 0x00	; 0
     52e:	db df       	rcall	.-74     	; 0x4e6 <__portable_avr_delay_cycles>
     530:	0f 2e       	mov	r0, r31
     532:	fb e2       	ldi	r31, 0x2B	; 43
     534:	bf 2e       	mov	r11, r31
     536:	f0 2d       	mov	r31, r0
     538:	b9 82       	std	Y+1, r11	; 0x01
     53a:	80 ea       	ldi	r24, 0xA0	; 160
     53c:	99 e0       	ldi	r25, 0x09	; 9
     53e:	08 d4       	rcall	.+2064   	; 0xd50 <usart_spi_init>
     540:	c1 2c       	mov	r12, r1
     542:	d1 2c       	mov	r13, r1
     544:	76 01       	movw	r14, r12
     546:	00 e4       	ldi	r16, 0x40	; 64
     548:	12 e4       	ldi	r17, 0x42	; 66
     54a:	2f e0       	ldi	r18, 0x0F	; 15
     54c:	30 e0       	ldi	r19, 0x00	; 0
     54e:	43 e0       	ldi	r20, 0x03	; 3
     550:	be 01       	movw	r22, r28
     552:	6f 5f       	subi	r22, 0xFF	; 255
     554:	7f 4f       	sbci	r23, 0xFF	; 255
     556:	80 ea       	ldi	r24, 0xA0	; 160
     558:	99 e0       	ldi	r25, 0x09	; 9
     55a:	29 d4       	rcall	.+2130   	; 0xdae <usart_spi_setup_device>
     55c:	00 e6       	ldi	r16, 0x60	; 96
     55e:	16 e0       	ldi	r17, 0x06	; 6
     560:	ff 24       	eor	r15, r15
     562:	f3 94       	inc	r15
     564:	f8 01       	movw	r30, r16
     566:	f6 82       	std	Z+6, r15	; 0x06
     568:	b9 82       	std	Y+1, r11	; 0x01
     56a:	be 01       	movw	r22, r28
     56c:	6f 5f       	subi	r22, 0xFF	; 255
     56e:	7f 4f       	sbci	r23, 0xFF	; 255
     570:	80 ea       	ldi	r24, 0xA0	; 160
     572:	99 e0       	ldi	r25, 0x09	; 9
     574:	36 d4       	rcall	.+2156   	; 0xde2 <usart_spi_select_device>
     576:	f8 01       	movw	r30, r16
     578:	f6 82       	std	Z+6, r15	; 0x06
     57a:	e0 ea       	ldi	r30, 0xA0	; 160
     57c:	f9 e0       	ldi	r31, 0x09	; 9
     57e:	81 81       	ldd	r24, Z+1	; 0x01
     580:	85 ff       	sbrs	r24, 5
     582:	fd cf       	rjmp	.-6      	; 0x57e <st7565r_init+0x8c>
     584:	80 ea       	ldi	r24, 0xA0	; 160
     586:	80 93 a0 09 	sts	0x09A0, r24	; 0x8009a0 <__TEXT_REGION_LENGTH__+0x7009a0>
     58a:	e0 ea       	ldi	r30, 0xA0	; 160
     58c:	f9 e0       	ldi	r31, 0x09	; 9
     58e:	81 81       	ldd	r24, Z+1	; 0x01
     590:	86 ff       	sbrs	r24, 6
     592:	fd cf       	rjmp	.-6      	; 0x58e <st7565r_init+0x9c>
     594:	e0 ea       	ldi	r30, 0xA0	; 160
     596:	f9 e0       	ldi	r31, 0x09	; 9
     598:	80 e4       	ldi	r24, 0x40	; 64
     59a:	81 83       	std	Z+1, r24	; 0x01
     59c:	80 81       	ld	r24, Z
     59e:	be 01       	movw	r22, r28
     5a0:	6f 5f       	subi	r22, 0xFF	; 255
     5a2:	7f 4f       	sbci	r23, 0xFF	; 255
     5a4:	80 ea       	ldi	r24, 0xA0	; 160
     5a6:	99 e0       	ldi	r25, 0x09	; 9
     5a8:	32 d4       	rcall	.+2148   	; 0xe0e <usart_spi_deselect_device>
     5aa:	8b e2       	ldi	r24, 0x2B	; 43
     5ac:	89 83       	std	Y+1, r24	; 0x01
     5ae:	be 01       	movw	r22, r28
     5b0:	6f 5f       	subi	r22, 0xFF	; 255
     5b2:	7f 4f       	sbci	r23, 0xFF	; 255
     5b4:	80 ea       	ldi	r24, 0xA0	; 160
     5b6:	99 e0       	ldi	r25, 0x09	; 9
     5b8:	14 d4       	rcall	.+2088   	; 0xde2 <usart_spi_select_device>
     5ba:	81 e0       	ldi	r24, 0x01	; 1
     5bc:	80 93 66 06 	sts	0x0666, r24	; 0x800666 <__TEXT_REGION_LENGTH__+0x700666>
     5c0:	e0 ea       	ldi	r30, 0xA0	; 160
     5c2:	f9 e0       	ldi	r31, 0x09	; 9
     5c4:	81 81       	ldd	r24, Z+1	; 0x01
     5c6:	85 ff       	sbrs	r24, 5
     5c8:	fd cf       	rjmp	.-6      	; 0x5c4 <st7565r_init+0xd2>
     5ca:	86 ea       	ldi	r24, 0xA6	; 166
     5cc:	80 93 a0 09 	sts	0x09A0, r24	; 0x8009a0 <__TEXT_REGION_LENGTH__+0x7009a0>
     5d0:	e0 ea       	ldi	r30, 0xA0	; 160
     5d2:	f9 e0       	ldi	r31, 0x09	; 9
     5d4:	81 81       	ldd	r24, Z+1	; 0x01
     5d6:	86 ff       	sbrs	r24, 6
     5d8:	fd cf       	rjmp	.-6      	; 0x5d4 <st7565r_init+0xe2>
     5da:	e0 ea       	ldi	r30, 0xA0	; 160
     5dc:	f9 e0       	ldi	r31, 0x09	; 9
     5de:	80 e4       	ldi	r24, 0x40	; 64
     5e0:	81 83       	std	Z+1, r24	; 0x01
     5e2:	80 81       	ld	r24, Z
     5e4:	be 01       	movw	r22, r28
     5e6:	6f 5f       	subi	r22, 0xFF	; 255
     5e8:	7f 4f       	sbci	r23, 0xFF	; 255
     5ea:	80 ea       	ldi	r24, 0xA0	; 160
     5ec:	99 e0       	ldi	r25, 0x09	; 9
     5ee:	0f d4       	rcall	.+2078   	; 0xe0e <usart_spi_deselect_device>
     5f0:	8b e2       	ldi	r24, 0x2B	; 43
     5f2:	89 83       	std	Y+1, r24	; 0x01
     5f4:	be 01       	movw	r22, r28
     5f6:	6f 5f       	subi	r22, 0xFF	; 255
     5f8:	7f 4f       	sbci	r23, 0xFF	; 255
     5fa:	80 ea       	ldi	r24, 0xA0	; 160
     5fc:	99 e0       	ldi	r25, 0x09	; 9
     5fe:	f1 d3       	rcall	.+2018   	; 0xde2 <usart_spi_select_device>
     600:	81 e0       	ldi	r24, 0x01	; 1
     602:	80 93 66 06 	sts	0x0666, r24	; 0x800666 <__TEXT_REGION_LENGTH__+0x700666>
     606:	e0 ea       	ldi	r30, 0xA0	; 160
     608:	f9 e0       	ldi	r31, 0x09	; 9
     60a:	81 81       	ldd	r24, Z+1	; 0x01
     60c:	85 ff       	sbrs	r24, 5
     60e:	fd cf       	rjmp	.-6      	; 0x60a <st7565r_init+0x118>
     610:	88 ec       	ldi	r24, 0xC8	; 200
     612:	80 93 a0 09 	sts	0x09A0, r24	; 0x8009a0 <__TEXT_REGION_LENGTH__+0x7009a0>
     616:	e0 ea       	ldi	r30, 0xA0	; 160
     618:	f9 e0       	ldi	r31, 0x09	; 9
     61a:	81 81       	ldd	r24, Z+1	; 0x01
     61c:	86 ff       	sbrs	r24, 6
     61e:	fd cf       	rjmp	.-6      	; 0x61a <st7565r_init+0x128>
     620:	e0 ea       	ldi	r30, 0xA0	; 160
     622:	f9 e0       	ldi	r31, 0x09	; 9
     624:	80 e4       	ldi	r24, 0x40	; 64
     626:	81 83       	std	Z+1, r24	; 0x01
     628:	80 81       	ld	r24, Z
     62a:	be 01       	movw	r22, r28
     62c:	6f 5f       	subi	r22, 0xFF	; 255
     62e:	7f 4f       	sbci	r23, 0xFF	; 255
     630:	80 ea       	ldi	r24, 0xA0	; 160
     632:	99 e0       	ldi	r25, 0x09	; 9
     634:	ec d3       	rcall	.+2008   	; 0xe0e <usart_spi_deselect_device>
     636:	8b e2       	ldi	r24, 0x2B	; 43
     638:	89 83       	std	Y+1, r24	; 0x01
     63a:	be 01       	movw	r22, r28
     63c:	6f 5f       	subi	r22, 0xFF	; 255
     63e:	7f 4f       	sbci	r23, 0xFF	; 255
     640:	80 ea       	ldi	r24, 0xA0	; 160
     642:	99 e0       	ldi	r25, 0x09	; 9
     644:	ce d3       	rcall	.+1948   	; 0xde2 <usart_spi_select_device>
     646:	81 e0       	ldi	r24, 0x01	; 1
     648:	80 93 66 06 	sts	0x0666, r24	; 0x800666 <__TEXT_REGION_LENGTH__+0x700666>
     64c:	e0 ea       	ldi	r30, 0xA0	; 160
     64e:	f9 e0       	ldi	r31, 0x09	; 9
     650:	81 81       	ldd	r24, Z+1	; 0x01
     652:	85 ff       	sbrs	r24, 5
     654:	fd cf       	rjmp	.-6      	; 0x650 <st7565r_init+0x15e>
     656:	82 ea       	ldi	r24, 0xA2	; 162
     658:	80 93 a0 09 	sts	0x09A0, r24	; 0x8009a0 <__TEXT_REGION_LENGTH__+0x7009a0>
     65c:	e0 ea       	ldi	r30, 0xA0	; 160
     65e:	f9 e0       	ldi	r31, 0x09	; 9
     660:	81 81       	ldd	r24, Z+1	; 0x01
     662:	86 ff       	sbrs	r24, 6
     664:	fd cf       	rjmp	.-6      	; 0x660 <st7565r_init+0x16e>
     666:	e0 ea       	ldi	r30, 0xA0	; 160
     668:	f9 e0       	ldi	r31, 0x09	; 9
     66a:	80 e4       	ldi	r24, 0x40	; 64
     66c:	81 83       	std	Z+1, r24	; 0x01
     66e:	80 81       	ld	r24, Z
     670:	be 01       	movw	r22, r28
     672:	6f 5f       	subi	r22, 0xFF	; 255
     674:	7f 4f       	sbci	r23, 0xFF	; 255
     676:	80 ea       	ldi	r24, 0xA0	; 160
     678:	99 e0       	ldi	r25, 0x09	; 9
     67a:	c9 d3       	rcall	.+1938   	; 0xe0e <usart_spi_deselect_device>
     67c:	8b e2       	ldi	r24, 0x2B	; 43
     67e:	89 83       	std	Y+1, r24	; 0x01
     680:	be 01       	movw	r22, r28
     682:	6f 5f       	subi	r22, 0xFF	; 255
     684:	7f 4f       	sbci	r23, 0xFF	; 255
     686:	80 ea       	ldi	r24, 0xA0	; 160
     688:	99 e0       	ldi	r25, 0x09	; 9
     68a:	ab d3       	rcall	.+1878   	; 0xde2 <usart_spi_select_device>
     68c:	81 e0       	ldi	r24, 0x01	; 1
     68e:	80 93 66 06 	sts	0x0666, r24	; 0x800666 <__TEXT_REGION_LENGTH__+0x700666>
     692:	e0 ea       	ldi	r30, 0xA0	; 160
     694:	f9 e0       	ldi	r31, 0x09	; 9
     696:	81 81       	ldd	r24, Z+1	; 0x01
     698:	85 ff       	sbrs	r24, 5
     69a:	fd cf       	rjmp	.-6      	; 0x696 <st7565r_init+0x1a4>
     69c:	8f e2       	ldi	r24, 0x2F	; 47
     69e:	80 93 a0 09 	sts	0x09A0, r24	; 0x8009a0 <__TEXT_REGION_LENGTH__+0x7009a0>
     6a2:	e0 ea       	ldi	r30, 0xA0	; 160
     6a4:	f9 e0       	ldi	r31, 0x09	; 9
     6a6:	81 81       	ldd	r24, Z+1	; 0x01
     6a8:	86 ff       	sbrs	r24, 6
     6aa:	fd cf       	rjmp	.-6      	; 0x6a6 <st7565r_init+0x1b4>
     6ac:	e0 ea       	ldi	r30, 0xA0	; 160
     6ae:	f9 e0       	ldi	r31, 0x09	; 9
     6b0:	80 e4       	ldi	r24, 0x40	; 64
     6b2:	81 83       	std	Z+1, r24	; 0x01
     6b4:	80 81       	ld	r24, Z
     6b6:	be 01       	movw	r22, r28
     6b8:	6f 5f       	subi	r22, 0xFF	; 255
     6ba:	7f 4f       	sbci	r23, 0xFF	; 255
     6bc:	80 ea       	ldi	r24, 0xA0	; 160
     6be:	99 e0       	ldi	r25, 0x09	; 9
     6c0:	a6 d3       	rcall	.+1868   	; 0xe0e <usart_spi_deselect_device>
     6c2:	8b e2       	ldi	r24, 0x2B	; 43
     6c4:	89 83       	std	Y+1, r24	; 0x01
     6c6:	be 01       	movw	r22, r28
     6c8:	6f 5f       	subi	r22, 0xFF	; 255
     6ca:	7f 4f       	sbci	r23, 0xFF	; 255
     6cc:	80 ea       	ldi	r24, 0xA0	; 160
     6ce:	99 e0       	ldi	r25, 0x09	; 9
     6d0:	88 d3       	rcall	.+1808   	; 0xde2 <usart_spi_select_device>
     6d2:	81 e0       	ldi	r24, 0x01	; 1
     6d4:	80 93 66 06 	sts	0x0666, r24	; 0x800666 <__TEXT_REGION_LENGTH__+0x700666>
     6d8:	e0 ea       	ldi	r30, 0xA0	; 160
     6da:	f9 e0       	ldi	r31, 0x09	; 9
     6dc:	81 81       	ldd	r24, Z+1	; 0x01
     6de:	85 ff       	sbrs	r24, 5
     6e0:	fd cf       	rjmp	.-6      	; 0x6dc <st7565r_init+0x1ea>
     6e2:	88 ef       	ldi	r24, 0xF8	; 248
     6e4:	80 93 a0 09 	sts	0x09A0, r24	; 0x8009a0 <__TEXT_REGION_LENGTH__+0x7009a0>
     6e8:	e0 ea       	ldi	r30, 0xA0	; 160
     6ea:	f9 e0       	ldi	r31, 0x09	; 9
     6ec:	81 81       	ldd	r24, Z+1	; 0x01
     6ee:	86 ff       	sbrs	r24, 6
     6f0:	fd cf       	rjmp	.-6      	; 0x6ec <st7565r_init+0x1fa>
     6f2:	e0 ea       	ldi	r30, 0xA0	; 160
     6f4:	f9 e0       	ldi	r31, 0x09	; 9
     6f6:	80 e4       	ldi	r24, 0x40	; 64
     6f8:	81 83       	std	Z+1, r24	; 0x01
     6fa:	80 81       	ld	r24, Z
     6fc:	be 01       	movw	r22, r28
     6fe:	6f 5f       	subi	r22, 0xFF	; 255
     700:	7f 4f       	sbci	r23, 0xFF	; 255
     702:	80 ea       	ldi	r24, 0xA0	; 160
     704:	99 e0       	ldi	r25, 0x09	; 9
     706:	83 d3       	rcall	.+1798   	; 0xe0e <usart_spi_deselect_device>
     708:	8b e2       	ldi	r24, 0x2B	; 43
     70a:	89 83       	std	Y+1, r24	; 0x01
     70c:	be 01       	movw	r22, r28
     70e:	6f 5f       	subi	r22, 0xFF	; 255
     710:	7f 4f       	sbci	r23, 0xFF	; 255
     712:	80 ea       	ldi	r24, 0xA0	; 160
     714:	99 e0       	ldi	r25, 0x09	; 9
     716:	65 d3       	rcall	.+1738   	; 0xde2 <usart_spi_select_device>
     718:	81 e0       	ldi	r24, 0x01	; 1
     71a:	80 93 66 06 	sts	0x0666, r24	; 0x800666 <__TEXT_REGION_LENGTH__+0x700666>
     71e:	e0 ea       	ldi	r30, 0xA0	; 160
     720:	f9 e0       	ldi	r31, 0x09	; 9
     722:	81 81       	ldd	r24, Z+1	; 0x01
     724:	85 ff       	sbrs	r24, 5
     726:	fd cf       	rjmp	.-6      	; 0x722 <st7565r_init+0x230>
     728:	10 92 a0 09 	sts	0x09A0, r1	; 0x8009a0 <__TEXT_REGION_LENGTH__+0x7009a0>
     72c:	e0 ea       	ldi	r30, 0xA0	; 160
     72e:	f9 e0       	ldi	r31, 0x09	; 9
     730:	81 81       	ldd	r24, Z+1	; 0x01
     732:	86 ff       	sbrs	r24, 6
     734:	fd cf       	rjmp	.-6      	; 0x730 <st7565r_init+0x23e>
     736:	e0 ea       	ldi	r30, 0xA0	; 160
     738:	f9 e0       	ldi	r31, 0x09	; 9
     73a:	80 e4       	ldi	r24, 0x40	; 64
     73c:	81 83       	std	Z+1, r24	; 0x01
     73e:	80 81       	ld	r24, Z
     740:	be 01       	movw	r22, r28
     742:	6f 5f       	subi	r22, 0xFF	; 255
     744:	7f 4f       	sbci	r23, 0xFF	; 255
     746:	80 ea       	ldi	r24, 0xA0	; 160
     748:	99 e0       	ldi	r25, 0x09	; 9
     74a:	61 d3       	rcall	.+1730   	; 0xe0e <usart_spi_deselect_device>
     74c:	8b e2       	ldi	r24, 0x2B	; 43
     74e:	89 83       	std	Y+1, r24	; 0x01
     750:	be 01       	movw	r22, r28
     752:	6f 5f       	subi	r22, 0xFF	; 255
     754:	7f 4f       	sbci	r23, 0xFF	; 255
     756:	80 ea       	ldi	r24, 0xA0	; 160
     758:	99 e0       	ldi	r25, 0x09	; 9
     75a:	43 d3       	rcall	.+1670   	; 0xde2 <usart_spi_select_device>
     75c:	81 e0       	ldi	r24, 0x01	; 1
     75e:	80 93 66 06 	sts	0x0666, r24	; 0x800666 <__TEXT_REGION_LENGTH__+0x700666>
     762:	e0 ea       	ldi	r30, 0xA0	; 160
     764:	f9 e0       	ldi	r31, 0x09	; 9
     766:	81 81       	ldd	r24, Z+1	; 0x01
     768:	85 ff       	sbrs	r24, 5
     76a:	fd cf       	rjmp	.-6      	; 0x766 <st7565r_init+0x274>
     76c:	81 e2       	ldi	r24, 0x21	; 33
     76e:	80 93 a0 09 	sts	0x09A0, r24	; 0x8009a0 <__TEXT_REGION_LENGTH__+0x7009a0>
     772:	e0 ea       	ldi	r30, 0xA0	; 160
     774:	f9 e0       	ldi	r31, 0x09	; 9
     776:	81 81       	ldd	r24, Z+1	; 0x01
     778:	86 ff       	sbrs	r24, 6
     77a:	fd cf       	rjmp	.-6      	; 0x776 <st7565r_init+0x284>
     77c:	e0 ea       	ldi	r30, 0xA0	; 160
     77e:	f9 e0       	ldi	r31, 0x09	; 9
     780:	80 e4       	ldi	r24, 0x40	; 64
     782:	81 83       	std	Z+1, r24	; 0x01
     784:	80 81       	ld	r24, Z
     786:	be 01       	movw	r22, r28
     788:	6f 5f       	subi	r22, 0xFF	; 255
     78a:	7f 4f       	sbci	r23, 0xFF	; 255
     78c:	80 ea       	ldi	r24, 0xA0	; 160
     78e:	99 e0       	ldi	r25, 0x09	; 9
     790:	3e d3       	rcall	.+1660   	; 0xe0e <usart_spi_deselect_device>
     792:	8b e2       	ldi	r24, 0x2B	; 43
     794:	89 83       	std	Y+1, r24	; 0x01
     796:	be 01       	movw	r22, r28
     798:	6f 5f       	subi	r22, 0xFF	; 255
     79a:	7f 4f       	sbci	r23, 0xFF	; 255
     79c:	80 ea       	ldi	r24, 0xA0	; 160
     79e:	99 e0       	ldi	r25, 0x09	; 9
     7a0:	20 d3       	rcall	.+1600   	; 0xde2 <usart_spi_select_device>
     7a2:	81 e0       	ldi	r24, 0x01	; 1
     7a4:	80 93 66 06 	sts	0x0666, r24	; 0x800666 <__TEXT_REGION_LENGTH__+0x700666>
     7a8:	e0 ea       	ldi	r30, 0xA0	; 160
     7aa:	f9 e0       	ldi	r31, 0x09	; 9
     7ac:	81 81       	ldd	r24, Z+1	; 0x01
     7ae:	85 ff       	sbrs	r24, 5
     7b0:	fd cf       	rjmp	.-6      	; 0x7ac <st7565r_init+0x2ba>
     7b2:	81 e8       	ldi	r24, 0x81	; 129
     7b4:	80 93 a0 09 	sts	0x09A0, r24	; 0x8009a0 <__TEXT_REGION_LENGTH__+0x7009a0>
     7b8:	e0 ea       	ldi	r30, 0xA0	; 160
     7ba:	f9 e0       	ldi	r31, 0x09	; 9
     7bc:	81 81       	ldd	r24, Z+1	; 0x01
     7be:	86 ff       	sbrs	r24, 6
     7c0:	fd cf       	rjmp	.-6      	; 0x7bc <st7565r_init+0x2ca>
     7c2:	e0 ea       	ldi	r30, 0xA0	; 160
     7c4:	f9 e0       	ldi	r31, 0x09	; 9
     7c6:	80 e4       	ldi	r24, 0x40	; 64
     7c8:	81 83       	std	Z+1, r24	; 0x01
     7ca:	80 81       	ld	r24, Z
     7cc:	be 01       	movw	r22, r28
     7ce:	6f 5f       	subi	r22, 0xFF	; 255
     7d0:	7f 4f       	sbci	r23, 0xFF	; 255
     7d2:	80 ea       	ldi	r24, 0xA0	; 160
     7d4:	99 e0       	ldi	r25, 0x09	; 9
     7d6:	1b d3       	rcall	.+1590   	; 0xe0e <usart_spi_deselect_device>
     7d8:	8b e2       	ldi	r24, 0x2B	; 43
     7da:	89 83       	std	Y+1, r24	; 0x01
     7dc:	be 01       	movw	r22, r28
     7de:	6f 5f       	subi	r22, 0xFF	; 255
     7e0:	7f 4f       	sbci	r23, 0xFF	; 255
     7e2:	80 ea       	ldi	r24, 0xA0	; 160
     7e4:	99 e0       	ldi	r25, 0x09	; 9
     7e6:	fd d2       	rcall	.+1530   	; 0xde2 <usart_spi_select_device>
     7e8:	81 e0       	ldi	r24, 0x01	; 1
     7ea:	80 93 66 06 	sts	0x0666, r24	; 0x800666 <__TEXT_REGION_LENGTH__+0x700666>
     7ee:	e0 ea       	ldi	r30, 0xA0	; 160
     7f0:	f9 e0       	ldi	r31, 0x09	; 9
     7f2:	81 81       	ldd	r24, Z+1	; 0x01
     7f4:	85 ff       	sbrs	r24, 5
     7f6:	fd cf       	rjmp	.-6      	; 0x7f2 <st7565r_init+0x300>
     7f8:	81 e2       	ldi	r24, 0x21	; 33
     7fa:	80 93 a0 09 	sts	0x09A0, r24	; 0x8009a0 <__TEXT_REGION_LENGTH__+0x7009a0>
     7fe:	e0 ea       	ldi	r30, 0xA0	; 160
     800:	f9 e0       	ldi	r31, 0x09	; 9
     802:	81 81       	ldd	r24, Z+1	; 0x01
     804:	86 ff       	sbrs	r24, 6
     806:	fd cf       	rjmp	.-6      	; 0x802 <st7565r_init+0x310>
     808:	e0 ea       	ldi	r30, 0xA0	; 160
     80a:	f9 e0       	ldi	r31, 0x09	; 9
     80c:	80 e4       	ldi	r24, 0x40	; 64
     80e:	81 83       	std	Z+1, r24	; 0x01
     810:	80 81       	ld	r24, Z
     812:	be 01       	movw	r22, r28
     814:	6f 5f       	subi	r22, 0xFF	; 255
     816:	7f 4f       	sbci	r23, 0xFF	; 255
     818:	80 ea       	ldi	r24, 0xA0	; 160
     81a:	99 e0       	ldi	r25, 0x09	; 9
     81c:	f8 d2       	rcall	.+1520   	; 0xe0e <usart_spi_deselect_device>
     81e:	8b e2       	ldi	r24, 0x2B	; 43
     820:	89 83       	std	Y+1, r24	; 0x01
     822:	be 01       	movw	r22, r28
     824:	6f 5f       	subi	r22, 0xFF	; 255
     826:	7f 4f       	sbci	r23, 0xFF	; 255
     828:	80 ea       	ldi	r24, 0xA0	; 160
     82a:	99 e0       	ldi	r25, 0x09	; 9
     82c:	da d2       	rcall	.+1460   	; 0xde2 <usart_spi_select_device>
     82e:	81 e0       	ldi	r24, 0x01	; 1
     830:	80 93 66 06 	sts	0x0666, r24	; 0x800666 <__TEXT_REGION_LENGTH__+0x700666>
     834:	e0 ea       	ldi	r30, 0xA0	; 160
     836:	f9 e0       	ldi	r31, 0x09	; 9
     838:	81 81       	ldd	r24, Z+1	; 0x01
     83a:	85 ff       	sbrs	r24, 5
     83c:	fd cf       	rjmp	.-6      	; 0x838 <st7565r_init+0x346>
     83e:	8f ea       	ldi	r24, 0xAF	; 175
     840:	80 93 a0 09 	sts	0x09A0, r24	; 0x8009a0 <__TEXT_REGION_LENGTH__+0x7009a0>
     844:	e0 ea       	ldi	r30, 0xA0	; 160
     846:	f9 e0       	ldi	r31, 0x09	; 9
     848:	81 81       	ldd	r24, Z+1	; 0x01
     84a:	86 ff       	sbrs	r24, 6
     84c:	fd cf       	rjmp	.-6      	; 0x848 <st7565r_init+0x356>
     84e:	e0 ea       	ldi	r30, 0xA0	; 160
     850:	f9 e0       	ldi	r31, 0x09	; 9
     852:	80 e4       	ldi	r24, 0x40	; 64
     854:	81 83       	std	Z+1, r24	; 0x01
     856:	80 81       	ld	r24, Z
     858:	be 01       	movw	r22, r28
     85a:	6f 5f       	subi	r22, 0xFF	; 255
     85c:	7f 4f       	sbci	r23, 0xFF	; 255
     85e:	80 ea       	ldi	r24, 0xA0	; 160
     860:	99 e0       	ldi	r25, 0x09	; 9
     862:	d5 d2       	rcall	.+1450   	; 0xe0e <usart_spi_deselect_device>
     864:	0f 90       	pop	r0
     866:	df 91       	pop	r29
     868:	cf 91       	pop	r28
     86a:	1f 91       	pop	r17
     86c:	0f 91       	pop	r16
     86e:	ff 90       	pop	r15
     870:	ef 90       	pop	r14
     872:	df 90       	pop	r13
     874:	cf 90       	pop	r12
     876:	bf 90       	pop	r11
     878:	08 95       	ret

0000087a <sysclk_init>:
     87a:	8f ef       	ldi	r24, 0xFF	; 255
     87c:	80 93 70 00 	sts	0x0070, r24	; 0x800070 <__TEXT_REGION_LENGTH__+0x700070>
     880:	80 93 71 00 	sts	0x0071, r24	; 0x800071 <__TEXT_REGION_LENGTH__+0x700071>
     884:	80 93 72 00 	sts	0x0072, r24	; 0x800072 <__TEXT_REGION_LENGTH__+0x700072>
     888:	80 93 73 00 	sts	0x0073, r24	; 0x800073 <__TEXT_REGION_LENGTH__+0x700073>
     88c:	80 93 74 00 	sts	0x0074, r24	; 0x800074 <__TEXT_REGION_LENGTH__+0x700074>
     890:	80 93 75 00 	sts	0x0075, r24	; 0x800075 <__TEXT_REGION_LENGTH__+0x700075>
     894:	80 93 76 00 	sts	0x0076, r24	; 0x800076 <__TEXT_REGION_LENGTH__+0x700076>
     898:	08 95       	ret

0000089a <sysclk_enable_module>:
     89a:	9f b7       	in	r25, 0x3f	; 63
     89c:	f8 94       	cli
     89e:	e8 2f       	mov	r30, r24
     8a0:	f0 e0       	ldi	r31, 0x00	; 0
     8a2:	e0 59       	subi	r30, 0x90	; 144
     8a4:	ff 4f       	sbci	r31, 0xFF	; 255
     8a6:	60 95       	com	r22
     8a8:	80 81       	ld	r24, Z
     8aa:	68 23       	and	r22, r24
     8ac:	60 83       	st	Z, r22
     8ae:	9f bf       	out	0x3f, r25	; 63
     8b0:	08 95       	ret

000008b2 <sysclk_disable_module>:
     8b2:	9f b7       	in	r25, 0x3f	; 63
     8b4:	f8 94       	cli
     8b6:	e8 2f       	mov	r30, r24
     8b8:	f0 e0       	ldi	r31, 0x00	; 0
     8ba:	e0 59       	subi	r30, 0x90	; 144
     8bc:	ff 4f       	sbci	r31, 0xFF	; 255
     8be:	80 81       	ld	r24, Z
     8c0:	68 2b       	or	r22, r24
     8c2:	60 83       	st	Z, r22
     8c4:	9f bf       	out	0x3f, r25	; 63
     8c6:	08 95       	ret

000008c8 <gfx_mono_st7565r_put_byte>:
     8c8:	ff 92       	push	r15
     8ca:	0f 93       	push	r16
     8cc:	1f 93       	push	r17
     8ce:	cf 93       	push	r28
     8d0:	df 93       	push	r29
     8d2:	1f 92       	push	r1
     8d4:	cd b7       	in	r28, 0x3d	; 61
     8d6:	de b7       	in	r29, 0x3e	; 62
     8d8:	08 2f       	mov	r16, r24
     8da:	f6 2e       	mov	r15, r22
     8dc:	14 2f       	mov	r17, r20
     8de:	1a d1       	rcall	.+564    	; 0xb14 <gfx_mono_framebuffer_put_byte>
     8e0:	0f 70       	andi	r16, 0x0F	; 15
     8e2:	00 6b       	ori	r16, 0xB0	; 176
     8e4:	8b e2       	ldi	r24, 0x2B	; 43
     8e6:	89 83       	std	Y+1, r24	; 0x01
     8e8:	be 01       	movw	r22, r28
     8ea:	6f 5f       	subi	r22, 0xFF	; 255
     8ec:	7f 4f       	sbci	r23, 0xFF	; 255
     8ee:	80 ea       	ldi	r24, 0xA0	; 160
     8f0:	99 e0       	ldi	r25, 0x09	; 9
     8f2:	77 d2       	rcall	.+1262   	; 0xde2 <usart_spi_select_device>
     8f4:	81 e0       	ldi	r24, 0x01	; 1
     8f6:	80 93 66 06 	sts	0x0666, r24	; 0x800666 <__TEXT_REGION_LENGTH__+0x700666>
     8fa:	e0 ea       	ldi	r30, 0xA0	; 160
     8fc:	f9 e0       	ldi	r31, 0x09	; 9
     8fe:	91 81       	ldd	r25, Z+1	; 0x01
     900:	95 ff       	sbrs	r25, 5
     902:	fd cf       	rjmp	.-6      	; 0x8fe <gfx_mono_st7565r_put_byte+0x36>
     904:	00 93 a0 09 	sts	0x09A0, r16	; 0x8009a0 <__TEXT_REGION_LENGTH__+0x7009a0>
     908:	e0 ea       	ldi	r30, 0xA0	; 160
     90a:	f9 e0       	ldi	r31, 0x09	; 9
     90c:	81 81       	ldd	r24, Z+1	; 0x01
     90e:	86 ff       	sbrs	r24, 6
     910:	fd cf       	rjmp	.-6      	; 0x90c <gfx_mono_st7565r_put_byte+0x44>
     912:	e0 ea       	ldi	r30, 0xA0	; 160
     914:	f9 e0       	ldi	r31, 0x09	; 9
     916:	80 e4       	ldi	r24, 0x40	; 64
     918:	81 83       	std	Z+1, r24	; 0x01
     91a:	80 81       	ld	r24, Z
     91c:	be 01       	movw	r22, r28
     91e:	6f 5f       	subi	r22, 0xFF	; 255
     920:	7f 4f       	sbci	r23, 0xFF	; 255
     922:	80 ea       	ldi	r24, 0xA0	; 160
     924:	99 e0       	ldi	r25, 0x09	; 9
     926:	73 d2       	rcall	.+1254   	; 0xe0e <usart_spi_deselect_device>
     928:	0f 2d       	mov	r16, r15
     92a:	0f 77       	andi	r16, 0x7F	; 127
     92c:	02 95       	swap	r16
     92e:	0f 70       	andi	r16, 0x0F	; 15
     930:	00 61       	ori	r16, 0x10	; 16
     932:	8b e2       	ldi	r24, 0x2B	; 43
     934:	89 83       	std	Y+1, r24	; 0x01
     936:	be 01       	movw	r22, r28
     938:	6f 5f       	subi	r22, 0xFF	; 255
     93a:	7f 4f       	sbci	r23, 0xFF	; 255
     93c:	80 ea       	ldi	r24, 0xA0	; 160
     93e:	99 e0       	ldi	r25, 0x09	; 9
     940:	50 d2       	rcall	.+1184   	; 0xde2 <usart_spi_select_device>
     942:	81 e0       	ldi	r24, 0x01	; 1
     944:	80 93 66 06 	sts	0x0666, r24	; 0x800666 <__TEXT_REGION_LENGTH__+0x700666>
     948:	e0 ea       	ldi	r30, 0xA0	; 160
     94a:	f9 e0       	ldi	r31, 0x09	; 9
     94c:	81 81       	ldd	r24, Z+1	; 0x01
     94e:	85 ff       	sbrs	r24, 5
     950:	fd cf       	rjmp	.-6      	; 0x94c <gfx_mono_st7565r_put_byte+0x84>
     952:	00 93 a0 09 	sts	0x09A0, r16	; 0x8009a0 <__TEXT_REGION_LENGTH__+0x7009a0>
     956:	e0 ea       	ldi	r30, 0xA0	; 160
     958:	f9 e0       	ldi	r31, 0x09	; 9
     95a:	81 81       	ldd	r24, Z+1	; 0x01
     95c:	86 ff       	sbrs	r24, 6
     95e:	fd cf       	rjmp	.-6      	; 0x95a <gfx_mono_st7565r_put_byte+0x92>
     960:	e0 ea       	ldi	r30, 0xA0	; 160
     962:	f9 e0       	ldi	r31, 0x09	; 9
     964:	80 e4       	ldi	r24, 0x40	; 64
     966:	81 83       	std	Z+1, r24	; 0x01
     968:	80 81       	ld	r24, Z
     96a:	be 01       	movw	r22, r28
     96c:	6f 5f       	subi	r22, 0xFF	; 255
     96e:	7f 4f       	sbci	r23, 0xFF	; 255
     970:	80 ea       	ldi	r24, 0xA0	; 160
     972:	99 e0       	ldi	r25, 0x09	; 9
     974:	4c d2       	rcall	.+1176   	; 0xe0e <usart_spi_deselect_device>
     976:	0f 2d       	mov	r16, r15
     978:	0f 70       	andi	r16, 0x0F	; 15
     97a:	8b e2       	ldi	r24, 0x2B	; 43
     97c:	89 83       	std	Y+1, r24	; 0x01
     97e:	be 01       	movw	r22, r28
     980:	6f 5f       	subi	r22, 0xFF	; 255
     982:	7f 4f       	sbci	r23, 0xFF	; 255
     984:	80 ea       	ldi	r24, 0xA0	; 160
     986:	99 e0       	ldi	r25, 0x09	; 9
     988:	2c d2       	rcall	.+1112   	; 0xde2 <usart_spi_select_device>
     98a:	81 e0       	ldi	r24, 0x01	; 1
     98c:	80 93 66 06 	sts	0x0666, r24	; 0x800666 <__TEXT_REGION_LENGTH__+0x700666>
     990:	e0 ea       	ldi	r30, 0xA0	; 160
     992:	f9 e0       	ldi	r31, 0x09	; 9
     994:	81 81       	ldd	r24, Z+1	; 0x01
     996:	85 ff       	sbrs	r24, 5
     998:	fd cf       	rjmp	.-6      	; 0x994 <gfx_mono_st7565r_put_byte+0xcc>
     99a:	00 93 a0 09 	sts	0x09A0, r16	; 0x8009a0 <__TEXT_REGION_LENGTH__+0x7009a0>
     99e:	e0 ea       	ldi	r30, 0xA0	; 160
     9a0:	f9 e0       	ldi	r31, 0x09	; 9
     9a2:	81 81       	ldd	r24, Z+1	; 0x01
     9a4:	86 ff       	sbrs	r24, 6
     9a6:	fd cf       	rjmp	.-6      	; 0x9a2 <gfx_mono_st7565r_put_byte+0xda>
     9a8:	e0 ea       	ldi	r30, 0xA0	; 160
     9aa:	f9 e0       	ldi	r31, 0x09	; 9
     9ac:	80 e4       	ldi	r24, 0x40	; 64
     9ae:	81 83       	std	Z+1, r24	; 0x01
     9b0:	80 81       	ld	r24, Z
     9b2:	be 01       	movw	r22, r28
     9b4:	6f 5f       	subi	r22, 0xFF	; 255
     9b6:	7f 4f       	sbci	r23, 0xFF	; 255
     9b8:	80 ea       	ldi	r24, 0xA0	; 160
     9ba:	99 e0       	ldi	r25, 0x09	; 9
     9bc:	28 d2       	rcall	.+1104   	; 0xe0e <usart_spi_deselect_device>
     9be:	8b e2       	ldi	r24, 0x2B	; 43
     9c0:	89 83       	std	Y+1, r24	; 0x01
     9c2:	be 01       	movw	r22, r28
     9c4:	6f 5f       	subi	r22, 0xFF	; 255
     9c6:	7f 4f       	sbci	r23, 0xFF	; 255
     9c8:	80 ea       	ldi	r24, 0xA0	; 160
     9ca:	99 e0       	ldi	r25, 0x09	; 9
     9cc:	0a d2       	rcall	.+1044   	; 0xde2 <usart_spi_select_device>
     9ce:	81 e0       	ldi	r24, 0x01	; 1
     9d0:	80 93 65 06 	sts	0x0665, r24	; 0x800665 <__TEXT_REGION_LENGTH__+0x700665>
     9d4:	e0 ea       	ldi	r30, 0xA0	; 160
     9d6:	f9 e0       	ldi	r31, 0x09	; 9
     9d8:	81 81       	ldd	r24, Z+1	; 0x01
     9da:	85 ff       	sbrs	r24, 5
     9dc:	fd cf       	rjmp	.-6      	; 0x9d8 <gfx_mono_st7565r_put_byte+0x110>
     9de:	10 93 a0 09 	sts	0x09A0, r17	; 0x8009a0 <__TEXT_REGION_LENGTH__+0x7009a0>
     9e2:	e0 ea       	ldi	r30, 0xA0	; 160
     9e4:	f9 e0       	ldi	r31, 0x09	; 9
     9e6:	81 81       	ldd	r24, Z+1	; 0x01
     9e8:	86 ff       	sbrs	r24, 6
     9ea:	fd cf       	rjmp	.-6      	; 0x9e6 <gfx_mono_st7565r_put_byte+0x11e>
     9ec:	e0 ea       	ldi	r30, 0xA0	; 160
     9ee:	f9 e0       	ldi	r31, 0x09	; 9
     9f0:	80 e4       	ldi	r24, 0x40	; 64
     9f2:	81 83       	std	Z+1, r24	; 0x01
     9f4:	80 81       	ld	r24, Z
     9f6:	81 e0       	ldi	r24, 0x01	; 1
     9f8:	80 93 66 06 	sts	0x0666, r24	; 0x800666 <__TEXT_REGION_LENGTH__+0x700666>
     9fc:	be 01       	movw	r22, r28
     9fe:	6f 5f       	subi	r22, 0xFF	; 255
     a00:	7f 4f       	sbci	r23, 0xFF	; 255
     a02:	80 ea       	ldi	r24, 0xA0	; 160
     a04:	99 e0       	ldi	r25, 0x09	; 9
     a06:	03 d2       	rcall	.+1030   	; 0xe0e <usart_spi_deselect_device>
     a08:	0f 90       	pop	r0
     a0a:	df 91       	pop	r29
     a0c:	cf 91       	pop	r28
     a0e:	1f 91       	pop	r17
     a10:	0f 91       	pop	r16
     a12:	ff 90       	pop	r15
     a14:	08 95       	ret

00000a16 <gfx_mono_st7565r_init>:
     a16:	0f 93       	push	r16
     a18:	1f 93       	push	r17
     a1a:	cf 93       	push	r28
     a1c:	df 93       	push	r29
     a1e:	1f 92       	push	r1
     a20:	cd b7       	in	r28, 0x3d	; 61
     a22:	de b7       	in	r29, 0x3e	; 62
     a24:	8e e4       	ldi	r24, 0x4E	; 78
     a26:	90 e2       	ldi	r25, 0x20	; 32
     a28:	70 d0       	rcall	.+224    	; 0xb0a <gfx_mono_set_framebuffer>
     a2a:	63 dd       	rcall	.-1338   	; 0x4f2 <st7565r_init>
     a2c:	8b e2       	ldi	r24, 0x2B	; 43
     a2e:	89 83       	std	Y+1, r24	; 0x01
     a30:	be 01       	movw	r22, r28
     a32:	6f 5f       	subi	r22, 0xFF	; 255
     a34:	7f 4f       	sbci	r23, 0xFF	; 255
     a36:	80 ea       	ldi	r24, 0xA0	; 160
     a38:	99 e0       	ldi	r25, 0x09	; 9
     a3a:	d3 d1       	rcall	.+934    	; 0xde2 <usart_spi_select_device>
     a3c:	81 e0       	ldi	r24, 0x01	; 1
     a3e:	80 93 66 06 	sts	0x0666, r24	; 0x800666 <__TEXT_REGION_LENGTH__+0x700666>
     a42:	e0 ea       	ldi	r30, 0xA0	; 160
     a44:	f9 e0       	ldi	r31, 0x09	; 9
     a46:	81 81       	ldd	r24, Z+1	; 0x01
     a48:	85 ff       	sbrs	r24, 5
     a4a:	fd cf       	rjmp	.-6      	; 0xa46 <gfx_mono_st7565r_init+0x30>
     a4c:	80 e4       	ldi	r24, 0x40	; 64
     a4e:	80 93 a0 09 	sts	0x09A0, r24	; 0x8009a0 <__TEXT_REGION_LENGTH__+0x7009a0>
     a52:	e0 ea       	ldi	r30, 0xA0	; 160
     a54:	f9 e0       	ldi	r31, 0x09	; 9
     a56:	81 81       	ldd	r24, Z+1	; 0x01
     a58:	86 ff       	sbrs	r24, 6
     a5a:	fd cf       	rjmp	.-6      	; 0xa56 <gfx_mono_st7565r_init+0x40>
     a5c:	e0 ea       	ldi	r30, 0xA0	; 160
     a5e:	f9 e0       	ldi	r31, 0x09	; 9
     a60:	80 e4       	ldi	r24, 0x40	; 64
     a62:	81 83       	std	Z+1, r24	; 0x01
     a64:	80 81       	ld	r24, Z
     a66:	be 01       	movw	r22, r28
     a68:	6f 5f       	subi	r22, 0xFF	; 255
     a6a:	7f 4f       	sbci	r23, 0xFF	; 255
     a6c:	80 ea       	ldi	r24, 0xA0	; 160
     a6e:	99 e0       	ldi	r25, 0x09	; 9
     a70:	ce d1       	rcall	.+924    	; 0xe0e <usart_spi_deselect_device>
     a72:	00 e0       	ldi	r16, 0x00	; 0
     a74:	0a c0       	rjmp	.+20     	; 0xa8a <gfx_mono_st7565r_init+0x74>
     a76:	40 e0       	ldi	r20, 0x00	; 0
     a78:	61 2f       	mov	r22, r17
     a7a:	80 2f       	mov	r24, r16
     a7c:	25 df       	rcall	.-438    	; 0x8c8 <gfx_mono_st7565r_put_byte>
     a7e:	1f 5f       	subi	r17, 0xFF	; 255
     a80:	10 38       	cpi	r17, 0x80	; 128
     a82:	c9 f7       	brne	.-14     	; 0xa76 <gfx_mono_st7565r_init+0x60>
     a84:	0f 5f       	subi	r16, 0xFF	; 255
     a86:	04 30       	cpi	r16, 0x04	; 4
     a88:	11 f0       	breq	.+4      	; 0xa8e <gfx_mono_st7565r_init+0x78>
     a8a:	10 e0       	ldi	r17, 0x00	; 0
     a8c:	f4 cf       	rjmp	.-24     	; 0xa76 <gfx_mono_st7565r_init+0x60>
     a8e:	0f 90       	pop	r0
     a90:	df 91       	pop	r29
     a92:	cf 91       	pop	r28
     a94:	1f 91       	pop	r17
     a96:	0f 91       	pop	r16
     a98:	08 95       	ret

00000a9a <gfx_mono_st7565r_draw_pixel>:
     a9a:	ff 92       	push	r15
     a9c:	0f 93       	push	r16
     a9e:	1f 93       	push	r17
     aa0:	cf 93       	push	r28
     aa2:	df 93       	push	r29
     aa4:	88 23       	and	r24, r24
     aa6:	4c f1       	brlt	.+82     	; 0xafa <gfx_mono_st7565r_draw_pixel+0x60>
     aa8:	60 32       	cpi	r22, 0x20	; 32
     aaa:	38 f5       	brcc	.+78     	; 0xafa <gfx_mono_st7565r_draw_pixel+0x60>
     aac:	d4 2f       	mov	r29, r20
     aae:	c8 2f       	mov	r28, r24
     ab0:	f6 2e       	mov	r15, r22
     ab2:	f6 94       	lsr	r15
     ab4:	f6 94       	lsr	r15
     ab6:	f6 94       	lsr	r15
     ab8:	70 e0       	ldi	r23, 0x00	; 0
     aba:	88 e0       	ldi	r24, 0x08	; 8
     abc:	f8 9e       	mul	r15, r24
     abe:	60 19       	sub	r22, r0
     ac0:	71 09       	sbc	r23, r1
     ac2:	11 24       	eor	r1, r1
     ac4:	81 e0       	ldi	r24, 0x01	; 1
     ac6:	90 e0       	ldi	r25, 0x00	; 0
     ac8:	8c 01       	movw	r16, r24
     aca:	02 c0       	rjmp	.+4      	; 0xad0 <gfx_mono_st7565r_draw_pixel+0x36>
     acc:	00 0f       	add	r16, r16
     ace:	11 1f       	adc	r17, r17
     ad0:	6a 95       	dec	r22
     ad2:	e2 f7       	brpl	.-8      	; 0xacc <gfx_mono_st7565r_draw_pixel+0x32>
     ad4:	6c 2f       	mov	r22, r28
     ad6:	8f 2d       	mov	r24, r15
     ad8:	2b d0       	rcall	.+86     	; 0xb30 <gfx_mono_framebuffer_get_byte>
     ada:	d1 30       	cpi	r29, 0x01	; 1
     adc:	21 f0       	breq	.+8      	; 0xae6 <gfx_mono_st7565r_draw_pixel+0x4c>
     ade:	28 f0       	brcs	.+10     	; 0xaea <gfx_mono_st7565r_draw_pixel+0x50>
     ae0:	d2 30       	cpi	r29, 0x02	; 2
     ae2:	31 f0       	breq	.+12     	; 0xaf0 <gfx_mono_st7565r_draw_pixel+0x56>
     ae4:	06 c0       	rjmp	.+12     	; 0xaf2 <gfx_mono_st7565r_draw_pixel+0x58>
     ae6:	80 2b       	or	r24, r16
     ae8:	04 c0       	rjmp	.+8      	; 0xaf2 <gfx_mono_st7565r_draw_pixel+0x58>
     aea:	00 95       	com	r16
     aec:	80 23       	and	r24, r16
     aee:	01 c0       	rjmp	.+2      	; 0xaf2 <gfx_mono_st7565r_draw_pixel+0x58>
     af0:	80 27       	eor	r24, r16
     af2:	48 2f       	mov	r20, r24
     af4:	6c 2f       	mov	r22, r28
     af6:	8f 2d       	mov	r24, r15
     af8:	e7 de       	rcall	.-562    	; 0x8c8 <gfx_mono_st7565r_put_byte>
     afa:	df 91       	pop	r29
     afc:	cf 91       	pop	r28
     afe:	1f 91       	pop	r17
     b00:	0f 91       	pop	r16
     b02:	ff 90       	pop	r15
     b04:	08 95       	ret

00000b06 <gfx_mono_st7565r_get_byte>:
     b06:	14 c0       	rjmp	.+40     	; 0xb30 <gfx_mono_framebuffer_get_byte>
     b08:	08 95       	ret

00000b0a <gfx_mono_set_framebuffer>:
     b0a:	80 93 4e 22 	sts	0x224E, r24	; 0x80224e <fbpointer>
     b0e:	90 93 4f 22 	sts	0x224F, r25	; 0x80224f <fbpointer+0x1>
     b12:	08 95       	ret

00000b14 <gfx_mono_framebuffer_put_byte>:
     b14:	20 91 4e 22 	lds	r18, 0x224E	; 0x80224e <fbpointer>
     b18:	30 91 4f 22 	lds	r19, 0x224F	; 0x80224f <fbpointer+0x1>
     b1c:	90 e8       	ldi	r25, 0x80	; 128
     b1e:	89 9f       	mul	r24, r25
     b20:	20 0d       	add	r18, r0
     b22:	31 1d       	adc	r19, r1
     b24:	11 24       	eor	r1, r1
     b26:	f9 01       	movw	r30, r18
     b28:	e6 0f       	add	r30, r22
     b2a:	f1 1d       	adc	r31, r1
     b2c:	40 83       	st	Z, r20
     b2e:	08 95       	ret

00000b30 <gfx_mono_framebuffer_get_byte>:
     b30:	20 91 4e 22 	lds	r18, 0x224E	; 0x80224e <fbpointer>
     b34:	30 91 4f 22 	lds	r19, 0x224F	; 0x80224f <fbpointer+0x1>
     b38:	90 e8       	ldi	r25, 0x80	; 128
     b3a:	89 9f       	mul	r24, r25
     b3c:	20 0d       	add	r18, r0
     b3e:	31 1d       	adc	r19, r1
     b40:	11 24       	eor	r1, r1
     b42:	f9 01       	movw	r30, r18
     b44:	e6 0f       	add	r30, r22
     b46:	f1 1d       	adc	r31, r1
     b48:	80 81       	ld	r24, Z
     b4a:	08 95       	ret

00000b4c <gfx_mono_generic_draw_horizontal_line>:
     b4c:	ff 92       	push	r15
     b4e:	0f 93       	push	r16
     b50:	1f 93       	push	r17
     b52:	cf 93       	push	r28
     b54:	df 93       	push	r29
     b56:	e4 2f       	mov	r30, r20
     b58:	f0 e0       	ldi	r31, 0x00	; 0
     b5a:	e8 0f       	add	r30, r24
     b5c:	f1 1d       	adc	r31, r1
     b5e:	e1 38       	cpi	r30, 0x81	; 129
     b60:	f1 05       	cpc	r31, r1
     b62:	1c f0       	brlt	.+6      	; 0xb6a <gfx_mono_generic_draw_horizontal_line+0x1e>
     b64:	c0 e8       	ldi	r28, 0x80	; 128
     b66:	4c 2f       	mov	r20, r28
     b68:	48 1b       	sub	r20, r24
     b6a:	44 23       	and	r20, r20
     b6c:	09 f4       	brne	.+2      	; 0xb70 <gfx_mono_generic_draw_horizontal_line+0x24>
     b6e:	4a c0       	rjmp	.+148    	; 0xc04 <gfx_mono_generic_draw_horizontal_line+0xb8>
     b70:	d6 2f       	mov	r29, r22
     b72:	d6 95       	lsr	r29
     b74:	d6 95       	lsr	r29
     b76:	d6 95       	lsr	r29
     b78:	70 e0       	ldi	r23, 0x00	; 0
     b7a:	98 e0       	ldi	r25, 0x08	; 8
     b7c:	d9 9f       	mul	r29, r25
     b7e:	60 19       	sub	r22, r0
     b80:	71 09       	sbc	r23, r1
     b82:	11 24       	eor	r1, r1
     b84:	e1 e0       	ldi	r30, 0x01	; 1
     b86:	f0 e0       	ldi	r31, 0x00	; 0
     b88:	df 01       	movw	r26, r30
     b8a:	02 c0       	rjmp	.+4      	; 0xb90 <gfx_mono_generic_draw_horizontal_line+0x44>
     b8c:	aa 0f       	add	r26, r26
     b8e:	bb 1f       	adc	r27, r27
     b90:	6a 95       	dec	r22
     b92:	e2 f7       	brpl	.-8      	; 0xb8c <gfx_mono_generic_draw_horizontal_line+0x40>
     b94:	fa 2e       	mov	r15, r26
     b96:	21 30       	cpi	r18, 0x01	; 1
     b98:	21 f0       	breq	.+8      	; 0xba2 <gfx_mono_generic_draw_horizontal_line+0x56>
     b9a:	98 f0       	brcs	.+38     	; 0xbc2 <gfx_mono_generic_draw_horizontal_line+0x76>
     b9c:	22 30       	cpi	r18, 0x02	; 2
     b9e:	19 f1       	breq	.+70     	; 0xbe6 <gfx_mono_generic_draw_horizontal_line+0x9a>
     ba0:	31 c0       	rjmp	.+98     	; 0xc04 <gfx_mono_generic_draw_horizontal_line+0xb8>
     ba2:	c4 2f       	mov	r28, r20
     ba4:	1f ef       	ldi	r17, 0xFF	; 255
     ba6:	18 0f       	add	r17, r24
     ba8:	01 2f       	mov	r16, r17
     baa:	0c 0f       	add	r16, r28
     bac:	60 2f       	mov	r22, r16
     bae:	8d 2f       	mov	r24, r29
     bb0:	aa df       	rcall	.-172    	; 0xb06 <gfx_mono_st7565r_get_byte>
     bb2:	4f 2d       	mov	r20, r15
     bb4:	48 2b       	or	r20, r24
     bb6:	60 2f       	mov	r22, r16
     bb8:	8d 2f       	mov	r24, r29
     bba:	86 de       	rcall	.-756    	; 0x8c8 <gfx_mono_st7565r_put_byte>
     bbc:	c1 50       	subi	r28, 0x01	; 1
     bbe:	a1 f7       	brne	.-24     	; 0xba8 <gfx_mono_generic_draw_horizontal_line+0x5c>
     bc0:	21 c0       	rjmp	.+66     	; 0xc04 <gfx_mono_generic_draw_horizontal_line+0xb8>
     bc2:	c4 2f       	mov	r28, r20
     bc4:	1f ef       	ldi	r17, 0xFF	; 255
     bc6:	18 0f       	add	r17, r24
     bc8:	fa 2e       	mov	r15, r26
     bca:	f0 94       	com	r15
     bcc:	01 2f       	mov	r16, r17
     bce:	0c 0f       	add	r16, r28
     bd0:	60 2f       	mov	r22, r16
     bd2:	8d 2f       	mov	r24, r29
     bd4:	98 df       	rcall	.-208    	; 0xb06 <gfx_mono_st7565r_get_byte>
     bd6:	4f 2d       	mov	r20, r15
     bd8:	48 23       	and	r20, r24
     bda:	60 2f       	mov	r22, r16
     bdc:	8d 2f       	mov	r24, r29
     bde:	74 de       	rcall	.-792    	; 0x8c8 <gfx_mono_st7565r_put_byte>
     be0:	c1 50       	subi	r28, 0x01	; 1
     be2:	a1 f7       	brne	.-24     	; 0xbcc <gfx_mono_generic_draw_horizontal_line+0x80>
     be4:	0f c0       	rjmp	.+30     	; 0xc04 <gfx_mono_generic_draw_horizontal_line+0xb8>
     be6:	c4 2f       	mov	r28, r20
     be8:	1f ef       	ldi	r17, 0xFF	; 255
     bea:	18 0f       	add	r17, r24
     bec:	01 2f       	mov	r16, r17
     bee:	0c 0f       	add	r16, r28
     bf0:	60 2f       	mov	r22, r16
     bf2:	8d 2f       	mov	r24, r29
     bf4:	88 df       	rcall	.-240    	; 0xb06 <gfx_mono_st7565r_get_byte>
     bf6:	4f 2d       	mov	r20, r15
     bf8:	48 27       	eor	r20, r24
     bfa:	60 2f       	mov	r22, r16
     bfc:	8d 2f       	mov	r24, r29
     bfe:	64 de       	rcall	.-824    	; 0x8c8 <gfx_mono_st7565r_put_byte>
     c00:	c1 50       	subi	r28, 0x01	; 1
     c02:	a1 f7       	brne	.-24     	; 0xbec <gfx_mono_generic_draw_horizontal_line+0xa0>
     c04:	df 91       	pop	r29
     c06:	cf 91       	pop	r28
     c08:	1f 91       	pop	r17
     c0a:	0f 91       	pop	r16
     c0c:	ff 90       	pop	r15
     c0e:	08 95       	ret

00000c10 <gfx_mono_generic_draw_filled_rect>:
     c10:	ff 92       	push	r15
     c12:	0f 93       	push	r16
     c14:	1f 93       	push	r17
     c16:	cf 93       	push	r28
     c18:	df 93       	push	r29
     c1a:	22 23       	and	r18, r18
     c1c:	69 f0       	breq	.+26     	; 0xc38 <gfx_mono_generic_draw_filled_rect+0x28>
     c1e:	f4 2e       	mov	r15, r20
     c20:	18 2f       	mov	r17, r24
     c22:	c2 2f       	mov	r28, r18
     c24:	df ef       	ldi	r29, 0xFF	; 255
     c26:	d6 0f       	add	r29, r22
     c28:	6d 2f       	mov	r22, r29
     c2a:	6c 0f       	add	r22, r28
     c2c:	20 2f       	mov	r18, r16
     c2e:	4f 2d       	mov	r20, r15
     c30:	81 2f       	mov	r24, r17
     c32:	8c df       	rcall	.-232    	; 0xb4c <gfx_mono_generic_draw_horizontal_line>
     c34:	c1 50       	subi	r28, 0x01	; 1
     c36:	c1 f7       	brne	.-16     	; 0xc28 <gfx_mono_generic_draw_filled_rect+0x18>
     c38:	df 91       	pop	r29
     c3a:	cf 91       	pop	r28
     c3c:	1f 91       	pop	r17
     c3e:	0f 91       	pop	r16
     c40:	ff 90       	pop	r15
     c42:	08 95       	ret

00000c44 <gfx_mono_draw_char>:
     c44:	af 92       	push	r10
     c46:	bf 92       	push	r11
     c48:	cf 92       	push	r12
     c4a:	df 92       	push	r13
     c4c:	ef 92       	push	r14
     c4e:	ff 92       	push	r15
     c50:	0f 93       	push	r16
     c52:	1f 93       	push	r17
     c54:	cf 93       	push	r28
     c56:	df 93       	push	r29
     c58:	c8 2f       	mov	r28, r24
     c5a:	e6 2e       	mov	r14, r22
     c5c:	b4 2e       	mov	r11, r20
     c5e:	69 01       	movw	r12, r18
     c60:	00 e0       	ldi	r16, 0x00	; 0
     c62:	f9 01       	movw	r30, r18
     c64:	24 81       	ldd	r18, Z+4	; 0x04
     c66:	43 81       	ldd	r20, Z+3	; 0x03
     c68:	6b 2d       	mov	r22, r11
     c6a:	8e 2d       	mov	r24, r14
     c6c:	d1 df       	rcall	.-94     	; 0xc10 <gfx_mono_generic_draw_filled_rect>
     c6e:	f6 01       	movw	r30, r12
     c70:	80 81       	ld	r24, Z
     c72:	81 11       	cpse	r24, r1
     c74:	39 c0       	rjmp	.+114    	; 0xce8 <gfx_mono_draw_char+0xa4>
     c76:	83 81       	ldd	r24, Z+3	; 0x03
     c78:	28 2f       	mov	r18, r24
     c7a:	26 95       	lsr	r18
     c7c:	26 95       	lsr	r18
     c7e:	26 95       	lsr	r18
     c80:	87 70       	andi	r24, 0x07	; 7
     c82:	09 f0       	breq	.+2      	; 0xc86 <gfx_mono_draw_char+0x42>
     c84:	2f 5f       	subi	r18, 0xFF	; 255
     c86:	f6 01       	movw	r30, r12
     c88:	a4 80       	ldd	r10, Z+4	; 0x04
     c8a:	8c 2f       	mov	r24, r28
     c8c:	90 e0       	ldi	r25, 0x00	; 0
     c8e:	35 81       	ldd	r19, Z+5	; 0x05
     c90:	83 1b       	sub	r24, r19
     c92:	91 09       	sbc	r25, r1
     c94:	2a 9d       	mul	r18, r10
     c96:	90 01       	movw	r18, r0
     c98:	11 24       	eor	r1, r1
     c9a:	82 9f       	mul	r24, r18
     c9c:	a0 01       	movw	r20, r0
     c9e:	83 9f       	mul	r24, r19
     ca0:	50 0d       	add	r21, r0
     ca2:	92 9f       	mul	r25, r18
     ca4:	50 0d       	add	r21, r0
     ca6:	11 24       	eor	r1, r1
     ca8:	01 81       	ldd	r16, Z+1	; 0x01
     caa:	12 81       	ldd	r17, Z+2	; 0x02
     cac:	04 0f       	add	r16, r20
     cae:	15 1f       	adc	r17, r21
     cb0:	f6 01       	movw	r30, r12
     cb2:	f3 80       	ldd	r15, Z+3	; 0x03
     cb4:	ff 20       	and	r15, r15
     cb6:	a1 f0       	breq	.+40     	; 0xce0 <gfx_mono_draw_char+0x9c>
     cb8:	d0 e0       	ldi	r29, 0x00	; 0
     cba:	c0 e0       	ldi	r28, 0x00	; 0
     cbc:	8e 2d       	mov	r24, r14
     cbe:	8c 0f       	add	r24, r28
     cc0:	9c 2f       	mov	r25, r28
     cc2:	97 70       	andi	r25, 0x07	; 7
     cc4:	21 f4       	brne	.+8      	; 0xcce <gfx_mono_draw_char+0x8a>
     cc6:	f8 01       	movw	r30, r16
     cc8:	d4 91       	lpm	r29, Z
     cca:	0f 5f       	subi	r16, 0xFF	; 255
     ccc:	1f 4f       	sbci	r17, 0xFF	; 255
     cce:	dd 23       	and	r29, r29
     cd0:	1c f4       	brge	.+6      	; 0xcd8 <gfx_mono_draw_char+0x94>
     cd2:	41 e0       	ldi	r20, 0x01	; 1
     cd4:	6b 2d       	mov	r22, r11
     cd6:	e1 de       	rcall	.-574    	; 0xa9a <gfx_mono_st7565r_draw_pixel>
     cd8:	dd 0f       	add	r29, r29
     cda:	cf 5f       	subi	r28, 0xFF	; 255
     cdc:	fc 12       	cpse	r15, r28
     cde:	ee cf       	rjmp	.-36     	; 0xcbc <gfx_mono_draw_char+0x78>
     ce0:	b3 94       	inc	r11
     ce2:	aa 94       	dec	r10
     ce4:	a1 10       	cpse	r10, r1
     ce6:	e4 cf       	rjmp	.-56     	; 0xcb0 <gfx_mono_draw_char+0x6c>
     ce8:	df 91       	pop	r29
     cea:	cf 91       	pop	r28
     cec:	1f 91       	pop	r17
     cee:	0f 91       	pop	r16
     cf0:	ff 90       	pop	r15
     cf2:	ef 90       	pop	r14
     cf4:	df 90       	pop	r13
     cf6:	cf 90       	pop	r12
     cf8:	bf 90       	pop	r11
     cfa:	af 90       	pop	r10
     cfc:	08 95       	ret

00000cfe <gfx_mono_draw_string>:
     cfe:	df 92       	push	r13
     d00:	ef 92       	push	r14
     d02:	ff 92       	push	r15
     d04:	0f 93       	push	r16
     d06:	1f 93       	push	r17
     d08:	cf 93       	push	r28
     d0a:	df 93       	push	r29
     d0c:	d6 2e       	mov	r13, r22
     d0e:	04 2f       	mov	r16, r20
     d10:	79 01       	movw	r14, r18
     d12:	ec 01       	movw	r28, r24
     d14:	16 2f       	mov	r17, r22
     d16:	89 91       	ld	r24, Y+
     d18:	8a 30       	cpi	r24, 0x0A	; 10
     d1a:	31 f4       	brne	.+12     	; 0xd28 <gfx_mono_draw_string+0x2a>
     d1c:	f7 01       	movw	r30, r14
     d1e:	84 81       	ldd	r24, Z+4	; 0x04
     d20:	8f 5f       	subi	r24, 0xFF	; 255
     d22:	08 0f       	add	r16, r24
     d24:	1d 2d       	mov	r17, r13
     d26:	09 c0       	rjmp	.+18     	; 0xd3a <gfx_mono_draw_string+0x3c>
     d28:	8d 30       	cpi	r24, 0x0D	; 13
     d2a:	39 f0       	breq	.+14     	; 0xd3a <gfx_mono_draw_string+0x3c>
     d2c:	97 01       	movw	r18, r14
     d2e:	40 2f       	mov	r20, r16
     d30:	61 2f       	mov	r22, r17
     d32:	88 df       	rcall	.-240    	; 0xc44 <gfx_mono_draw_char>
     d34:	f7 01       	movw	r30, r14
     d36:	83 81       	ldd	r24, Z+3	; 0x03
     d38:	18 0f       	add	r17, r24
     d3a:	88 81       	ld	r24, Y
     d3c:	81 11       	cpse	r24, r1
     d3e:	eb cf       	rjmp	.-42     	; 0xd16 <gfx_mono_draw_string+0x18>
     d40:	df 91       	pop	r29
     d42:	cf 91       	pop	r28
     d44:	1f 91       	pop	r17
     d46:	0f 91       	pop	r16
     d48:	ff 90       	pop	r15
     d4a:	ef 90       	pop	r14
     d4c:	df 90       	pop	r13
     d4e:	08 95       	ret

00000d50 <usart_spi_init>:
     d50:	80 3a       	cpi	r24, 0xA0	; 160
     d52:	28 e0       	ldi	r18, 0x08	; 8
     d54:	92 07       	cpc	r25, r18
     d56:	21 f4       	brne	.+8      	; 0xd60 <usart_spi_init+0x10>
     d58:	60 e1       	ldi	r22, 0x10	; 16
     d5a:	83 e0       	ldi	r24, 0x03	; 3
     d5c:	9e cd       	rjmp	.-1220   	; 0x89a <sysclk_enable_module>
     d5e:	08 95       	ret
     d60:	80 3b       	cpi	r24, 0xB0	; 176
     d62:	28 e0       	ldi	r18, 0x08	; 8
     d64:	92 07       	cpc	r25, r18
     d66:	21 f4       	brne	.+8      	; 0xd70 <usart_spi_init+0x20>
     d68:	60 e2       	ldi	r22, 0x20	; 32
     d6a:	83 e0       	ldi	r24, 0x03	; 3
     d6c:	96 cd       	rjmp	.-1236   	; 0x89a <sysclk_enable_module>
     d6e:	08 95       	ret
     d70:	80 3a       	cpi	r24, 0xA0	; 160
     d72:	29 e0       	ldi	r18, 0x09	; 9
     d74:	92 07       	cpc	r25, r18
     d76:	21 f4       	brne	.+8      	; 0xd80 <usart_spi_init+0x30>
     d78:	60 e1       	ldi	r22, 0x10	; 16
     d7a:	84 e0       	ldi	r24, 0x04	; 4
     d7c:	8e cd       	rjmp	.-1252   	; 0x89a <sysclk_enable_module>
     d7e:	08 95       	ret
     d80:	80 3b       	cpi	r24, 0xB0	; 176
     d82:	29 e0       	ldi	r18, 0x09	; 9
     d84:	92 07       	cpc	r25, r18
     d86:	21 f4       	brne	.+8      	; 0xd90 <usart_spi_init+0x40>
     d88:	60 e2       	ldi	r22, 0x20	; 32
     d8a:	84 e0       	ldi	r24, 0x04	; 4
     d8c:	86 cd       	rjmp	.-1268   	; 0x89a <sysclk_enable_module>
     d8e:	08 95       	ret
     d90:	80 3a       	cpi	r24, 0xA0	; 160
     d92:	2a e0       	ldi	r18, 0x0A	; 10
     d94:	92 07       	cpc	r25, r18
     d96:	21 f4       	brne	.+8      	; 0xda0 <usart_spi_init+0x50>
     d98:	60 e1       	ldi	r22, 0x10	; 16
     d9a:	85 e0       	ldi	r24, 0x05	; 5
     d9c:	7e cd       	rjmp	.-1284   	; 0x89a <sysclk_enable_module>
     d9e:	08 95       	ret
     da0:	80 3a       	cpi	r24, 0xA0	; 160
     da2:	9b 40       	sbci	r25, 0x0B	; 11
     da4:	19 f4       	brne	.+6      	; 0xdac <usart_spi_init+0x5c>
     da6:	60 e1       	ldi	r22, 0x10	; 16
     da8:	86 e0       	ldi	r24, 0x06	; 6
     daa:	77 cd       	rjmp	.-1298   	; 0x89a <sysclk_enable_module>
     dac:	08 95       	ret

00000dae <usart_spi_setup_device>:
     dae:	0f 93       	push	r16
     db0:	1f 93       	push	r17
     db2:	cf 93       	push	r28
     db4:	df 93       	push	r29
     db6:	00 d0       	rcall	.+0      	; 0xdb8 <usart_spi_setup_device+0xa>
     db8:	00 d0       	rcall	.+0      	; 0xdba <usart_spi_setup_device+0xc>
     dba:	cd b7       	in	r28, 0x3d	; 61
     dbc:	de b7       	in	r29, 0x3e	; 62
     dbe:	09 83       	std	Y+1, r16	; 0x01
     dc0:	1a 83       	std	Y+2, r17	; 0x02
     dc2:	2b 83       	std	Y+3, r18	; 0x03
     dc4:	3c 83       	std	Y+4, r19	; 0x04
     dc6:	4d 83       	std	Y+5, r20	; 0x05
     dc8:	1e 82       	std	Y+6, r1	; 0x06
     dca:	be 01       	movw	r22, r28
     dcc:	6f 5f       	subi	r22, 0xFF	; 255
     dce:	7f 4f       	sbci	r23, 0xFF	; 255
     dd0:	62 d5       	rcall	.+2756   	; 0x1896 <usart_init_spi>
     dd2:	26 96       	adiw	r28, 0x06	; 6
     dd4:	cd bf       	out	0x3d, r28	; 61
     dd6:	de bf       	out	0x3e, r29	; 62
     dd8:	df 91       	pop	r29
     dda:	cf 91       	pop	r28
     ddc:	1f 91       	pop	r17
     dde:	0f 91       	pop	r16
     de0:	08 95       	ret

00000de2 <usart_spi_select_device>:
     de2:	fb 01       	movw	r30, r22
     de4:	80 81       	ld	r24, Z
     de6:	e8 2f       	mov	r30, r24
     de8:	e6 95       	lsr	r30
     dea:	e6 95       	lsr	r30
     dec:	e6 95       	lsr	r30
     dee:	40 e2       	ldi	r20, 0x20	; 32
     df0:	e4 9f       	mul	r30, r20
     df2:	f0 01       	movw	r30, r0
     df4:	11 24       	eor	r1, r1
     df6:	fa 5f       	subi	r31, 0xFA	; 250
     df8:	87 70       	andi	r24, 0x07	; 7
     dfa:	21 e0       	ldi	r18, 0x01	; 1
     dfc:	30 e0       	ldi	r19, 0x00	; 0
     dfe:	a9 01       	movw	r20, r18
     e00:	02 c0       	rjmp	.+4      	; 0xe06 <usart_spi_select_device+0x24>
     e02:	44 0f       	add	r20, r20
     e04:	55 1f       	adc	r21, r21
     e06:	8a 95       	dec	r24
     e08:	e2 f7       	brpl	.-8      	; 0xe02 <usart_spi_select_device+0x20>
     e0a:	46 83       	std	Z+6, r20	; 0x06
     e0c:	08 95       	ret

00000e0e <usart_spi_deselect_device>:
     e0e:	fb 01       	movw	r30, r22
     e10:	80 81       	ld	r24, Z
     e12:	e8 2f       	mov	r30, r24
     e14:	e6 95       	lsr	r30
     e16:	e6 95       	lsr	r30
     e18:	e6 95       	lsr	r30
     e1a:	40 e2       	ldi	r20, 0x20	; 32
     e1c:	e4 9f       	mul	r30, r20
     e1e:	f0 01       	movw	r30, r0
     e20:	11 24       	eor	r1, r1
     e22:	fa 5f       	subi	r31, 0xFA	; 250
     e24:	87 70       	andi	r24, 0x07	; 7
     e26:	21 e0       	ldi	r18, 0x01	; 1
     e28:	30 e0       	ldi	r19, 0x00	; 0
     e2a:	a9 01       	movw	r20, r18
     e2c:	02 c0       	rjmp	.+4      	; 0xe32 <usart_spi_deselect_device+0x24>
     e2e:	44 0f       	add	r20, r20
     e30:	55 1f       	adc	r21, r21
     e32:	8a 95       	dec	r24
     e34:	e2 f7       	brpl	.-8      	; 0xe2e <usart_spi_deselect_device+0x20>
     e36:	45 83       	std	Z+5, r20	; 0x05
     e38:	08 95       	ret

00000e3a <adc_enable_clock>:
     e3a:	81 15       	cp	r24, r1
     e3c:	22 e0       	ldi	r18, 0x02	; 2
     e3e:	92 07       	cpc	r25, r18
     e40:	61 f4       	brne	.+24     	; 0xe5a <adc_enable_clock+0x20>
     e42:	80 91 51 22 	lds	r24, 0x2251	; 0x802251 <adca_enable_count>
     e46:	91 e0       	ldi	r25, 0x01	; 1
     e48:	98 0f       	add	r25, r24
     e4a:	90 93 51 22 	sts	0x2251, r25	; 0x802251 <adca_enable_count>
     e4e:	81 11       	cpse	r24, r1
     e50:	12 c0       	rjmp	.+36     	; 0xe76 <adc_enable_clock+0x3c>
     e52:	62 e0       	ldi	r22, 0x02	; 2
     e54:	81 e0       	ldi	r24, 0x01	; 1
     e56:	21 cd       	rjmp	.-1470   	; 0x89a <sysclk_enable_module>
     e58:	08 95       	ret
     e5a:	80 34       	cpi	r24, 0x40	; 64
     e5c:	92 40       	sbci	r25, 0x02	; 2
     e5e:	59 f4       	brne	.+22     	; 0xe76 <adc_enable_clock+0x3c>
     e60:	80 91 50 22 	lds	r24, 0x2250	; 0x802250 <adcb_enable_count>
     e64:	91 e0       	ldi	r25, 0x01	; 1
     e66:	98 0f       	add	r25, r24
     e68:	90 93 50 22 	sts	0x2250, r25	; 0x802250 <adcb_enable_count>
     e6c:	81 11       	cpse	r24, r1
     e6e:	03 c0       	rjmp	.+6      	; 0xe76 <adc_enable_clock+0x3c>
     e70:	62 e0       	ldi	r22, 0x02	; 2
     e72:	82 e0       	ldi	r24, 0x02	; 2
     e74:	12 cd       	rjmp	.-1500   	; 0x89a <sysclk_enable_module>
     e76:	08 95       	ret

00000e78 <adc_disable_clock>:
     e78:	81 15       	cp	r24, r1
     e7a:	22 e0       	ldi	r18, 0x02	; 2
     e7c:	92 07       	cpc	r25, r18
     e7e:	59 f4       	brne	.+22     	; 0xe96 <adc_disable_clock+0x1e>
     e80:	80 91 51 22 	lds	r24, 0x2251	; 0x802251 <adca_enable_count>
     e84:	81 50       	subi	r24, 0x01	; 1
     e86:	80 93 51 22 	sts	0x2251, r24	; 0x802251 <adca_enable_count>
     e8a:	81 11       	cpse	r24, r1
     e8c:	11 c0       	rjmp	.+34     	; 0xeb0 <adc_disable_clock+0x38>
     e8e:	62 e0       	ldi	r22, 0x02	; 2
     e90:	81 e0       	ldi	r24, 0x01	; 1
     e92:	0f cd       	rjmp	.-1506   	; 0x8b2 <sysclk_disable_module>
     e94:	08 95       	ret
     e96:	80 34       	cpi	r24, 0x40	; 64
     e98:	92 40       	sbci	r25, 0x02	; 2
     e9a:	51 f4       	brne	.+20     	; 0xeb0 <adc_disable_clock+0x38>
     e9c:	80 91 50 22 	lds	r24, 0x2250	; 0x802250 <adcb_enable_count>
     ea0:	81 50       	subi	r24, 0x01	; 1
     ea2:	80 93 50 22 	sts	0x2250, r24	; 0x802250 <adcb_enable_count>
     ea6:	81 11       	cpse	r24, r1
     ea8:	03 c0       	rjmp	.+6      	; 0xeb0 <adc_disable_clock+0x38>
     eaa:	62 e0       	ldi	r22, 0x02	; 2
     eac:	82 e0       	ldi	r24, 0x02	; 2
     eae:	01 cd       	rjmp	.-1534   	; 0x8b2 <sysclk_disable_module>
     eb0:	08 95       	ret

00000eb2 <adc_enable>:
     eb2:	1f 93       	push	r17
     eb4:	cf 93       	push	r28
     eb6:	df 93       	push	r29
     eb8:	ec 01       	movw	r28, r24
     eba:	1f b7       	in	r17, 0x3f	; 63
     ebc:	f8 94       	cli
     ebe:	bd df       	rcall	.-134    	; 0xe3a <adc_enable_clock>
     ec0:	88 81       	ld	r24, Y
     ec2:	81 60       	ori	r24, 0x01	; 1
     ec4:	88 83       	st	Y, r24
     ec6:	1f bf       	out	0x3f, r17	; 63
     ec8:	9f b7       	in	r25, 0x3f	; 63
     eca:	f8 94       	cli
     ecc:	e1 e0       	ldi	r30, 0x01	; 1
     ece:	f4 e2       	ldi	r31, 0x24	; 36
     ed0:	81 81       	ldd	r24, Z+1	; 0x01
     ed2:	8f 5f       	subi	r24, 0xFF	; 255
     ed4:	81 83       	std	Z+1, r24	; 0x01
     ed6:	9f bf       	out	0x3f, r25	; 63
     ed8:	df 91       	pop	r29
     eda:	cf 91       	pop	r28
     edc:	1f 91       	pop	r17
     ede:	08 95       	ret

00000ee0 <__vector_71>:
     ee0:	1f 92       	push	r1
     ee2:	0f 92       	push	r0
     ee4:	0f b6       	in	r0, 0x3f	; 63
     ee6:	0f 92       	push	r0
     ee8:	11 24       	eor	r1, r1
     eea:	0b b6       	in	r0, 0x3b	; 59
     eec:	0f 92       	push	r0
     eee:	2f 93       	push	r18
     ef0:	3f 93       	push	r19
     ef2:	4f 93       	push	r20
     ef4:	5f 93       	push	r21
     ef6:	6f 93       	push	r22
     ef8:	7f 93       	push	r23
     efa:	8f 93       	push	r24
     efc:	9f 93       	push	r25
     efe:	af 93       	push	r26
     f00:	bf 93       	push	r27
     f02:	ef 93       	push	r30
     f04:	ff 93       	push	r31
     f06:	40 91 24 02 	lds	r20, 0x0224	; 0x800224 <__TEXT_REGION_LENGTH__+0x700224>
     f0a:	50 91 25 02 	lds	r21, 0x0225	; 0x800225 <__TEXT_REGION_LENGTH__+0x700225>
     f0e:	e0 91 09 24 	lds	r30, 0x2409	; 0x802409 <adca_callback>
     f12:	f0 91 0a 24 	lds	r31, 0x240A	; 0x80240a <adca_callback+0x1>
     f16:	61 e0       	ldi	r22, 0x01	; 1
     f18:	80 e0       	ldi	r24, 0x00	; 0
     f1a:	92 e0       	ldi	r25, 0x02	; 2
     f1c:	19 95       	eicall
     f1e:	ff 91       	pop	r31
     f20:	ef 91       	pop	r30
     f22:	bf 91       	pop	r27
     f24:	af 91       	pop	r26
     f26:	9f 91       	pop	r25
     f28:	8f 91       	pop	r24
     f2a:	7f 91       	pop	r23
     f2c:	6f 91       	pop	r22
     f2e:	5f 91       	pop	r21
     f30:	4f 91       	pop	r20
     f32:	3f 91       	pop	r19
     f34:	2f 91       	pop	r18
     f36:	0f 90       	pop	r0
     f38:	0b be       	out	0x3b, r0	; 59
     f3a:	0f 90       	pop	r0
     f3c:	0f be       	out	0x3f, r0	; 63
     f3e:	0f 90       	pop	r0
     f40:	1f 90       	pop	r1
     f42:	18 95       	reti

00000f44 <__vector_72>:
     f44:	1f 92       	push	r1
     f46:	0f 92       	push	r0
     f48:	0f b6       	in	r0, 0x3f	; 63
     f4a:	0f 92       	push	r0
     f4c:	11 24       	eor	r1, r1
     f4e:	0b b6       	in	r0, 0x3b	; 59
     f50:	0f 92       	push	r0
     f52:	2f 93       	push	r18
     f54:	3f 93       	push	r19
     f56:	4f 93       	push	r20
     f58:	5f 93       	push	r21
     f5a:	6f 93       	push	r22
     f5c:	7f 93       	push	r23
     f5e:	8f 93       	push	r24
     f60:	9f 93       	push	r25
     f62:	af 93       	push	r26
     f64:	bf 93       	push	r27
     f66:	ef 93       	push	r30
     f68:	ff 93       	push	r31
     f6a:	40 91 2c 02 	lds	r20, 0x022C	; 0x80022c <__TEXT_REGION_LENGTH__+0x70022c>
     f6e:	50 91 2d 02 	lds	r21, 0x022D	; 0x80022d <__TEXT_REGION_LENGTH__+0x70022d>
     f72:	e0 91 09 24 	lds	r30, 0x2409	; 0x802409 <adca_callback>
     f76:	f0 91 0a 24 	lds	r31, 0x240A	; 0x80240a <adca_callback+0x1>
     f7a:	62 e0       	ldi	r22, 0x02	; 2
     f7c:	80 e0       	ldi	r24, 0x00	; 0
     f7e:	92 e0       	ldi	r25, 0x02	; 2
     f80:	19 95       	eicall
     f82:	ff 91       	pop	r31
     f84:	ef 91       	pop	r30
     f86:	bf 91       	pop	r27
     f88:	af 91       	pop	r26
     f8a:	9f 91       	pop	r25
     f8c:	8f 91       	pop	r24
     f8e:	7f 91       	pop	r23
     f90:	6f 91       	pop	r22
     f92:	5f 91       	pop	r21
     f94:	4f 91       	pop	r20
     f96:	3f 91       	pop	r19
     f98:	2f 91       	pop	r18
     f9a:	0f 90       	pop	r0
     f9c:	0b be       	out	0x3b, r0	; 59
     f9e:	0f 90       	pop	r0
     fa0:	0f be       	out	0x3f, r0	; 63
     fa2:	0f 90       	pop	r0
     fa4:	1f 90       	pop	r1
     fa6:	18 95       	reti

00000fa8 <__vector_73>:
     fa8:	1f 92       	push	r1
     faa:	0f 92       	push	r0
     fac:	0f b6       	in	r0, 0x3f	; 63
     fae:	0f 92       	push	r0
     fb0:	11 24       	eor	r1, r1
     fb2:	0b b6       	in	r0, 0x3b	; 59
     fb4:	0f 92       	push	r0
     fb6:	2f 93       	push	r18
     fb8:	3f 93       	push	r19
     fba:	4f 93       	push	r20
     fbc:	5f 93       	push	r21
     fbe:	6f 93       	push	r22
     fc0:	7f 93       	push	r23
     fc2:	8f 93       	push	r24
     fc4:	9f 93       	push	r25
     fc6:	af 93       	push	r26
     fc8:	bf 93       	push	r27
     fca:	ef 93       	push	r30
     fcc:	ff 93       	push	r31
     fce:	40 91 34 02 	lds	r20, 0x0234	; 0x800234 <__TEXT_REGION_LENGTH__+0x700234>
     fd2:	50 91 35 02 	lds	r21, 0x0235	; 0x800235 <__TEXT_REGION_LENGTH__+0x700235>
     fd6:	e0 91 09 24 	lds	r30, 0x2409	; 0x802409 <adca_callback>
     fda:	f0 91 0a 24 	lds	r31, 0x240A	; 0x80240a <adca_callback+0x1>
     fde:	64 e0       	ldi	r22, 0x04	; 4
     fe0:	80 e0       	ldi	r24, 0x00	; 0
     fe2:	92 e0       	ldi	r25, 0x02	; 2
     fe4:	19 95       	eicall
     fe6:	ff 91       	pop	r31
     fe8:	ef 91       	pop	r30
     fea:	bf 91       	pop	r27
     fec:	af 91       	pop	r26
     fee:	9f 91       	pop	r25
     ff0:	8f 91       	pop	r24
     ff2:	7f 91       	pop	r23
     ff4:	6f 91       	pop	r22
     ff6:	5f 91       	pop	r21
     ff8:	4f 91       	pop	r20
     ffa:	3f 91       	pop	r19
     ffc:	2f 91       	pop	r18
     ffe:	0f 90       	pop	r0
    1000:	0b be       	out	0x3b, r0	; 59
    1002:	0f 90       	pop	r0
    1004:	0f be       	out	0x3f, r0	; 63
    1006:	0f 90       	pop	r0
    1008:	1f 90       	pop	r1
    100a:	18 95       	reti

0000100c <__vector_74>:
    100c:	1f 92       	push	r1
    100e:	0f 92       	push	r0
    1010:	0f b6       	in	r0, 0x3f	; 63
    1012:	0f 92       	push	r0
    1014:	11 24       	eor	r1, r1
    1016:	0b b6       	in	r0, 0x3b	; 59
    1018:	0f 92       	push	r0
    101a:	2f 93       	push	r18
    101c:	3f 93       	push	r19
    101e:	4f 93       	push	r20
    1020:	5f 93       	push	r21
    1022:	6f 93       	push	r22
    1024:	7f 93       	push	r23
    1026:	8f 93       	push	r24
    1028:	9f 93       	push	r25
    102a:	af 93       	push	r26
    102c:	bf 93       	push	r27
    102e:	ef 93       	push	r30
    1030:	ff 93       	push	r31
    1032:	40 91 3c 02 	lds	r20, 0x023C	; 0x80023c <__TEXT_REGION_LENGTH__+0x70023c>
    1036:	50 91 3d 02 	lds	r21, 0x023D	; 0x80023d <__TEXT_REGION_LENGTH__+0x70023d>
    103a:	e0 91 09 24 	lds	r30, 0x2409	; 0x802409 <adca_callback>
    103e:	f0 91 0a 24 	lds	r31, 0x240A	; 0x80240a <adca_callback+0x1>
    1042:	68 e0       	ldi	r22, 0x08	; 8
    1044:	80 e0       	ldi	r24, 0x00	; 0
    1046:	92 e0       	ldi	r25, 0x02	; 2
    1048:	19 95       	eicall
    104a:	ff 91       	pop	r31
    104c:	ef 91       	pop	r30
    104e:	bf 91       	pop	r27
    1050:	af 91       	pop	r26
    1052:	9f 91       	pop	r25
    1054:	8f 91       	pop	r24
    1056:	7f 91       	pop	r23
    1058:	6f 91       	pop	r22
    105a:	5f 91       	pop	r21
    105c:	4f 91       	pop	r20
    105e:	3f 91       	pop	r19
    1060:	2f 91       	pop	r18
    1062:	0f 90       	pop	r0
    1064:	0b be       	out	0x3b, r0	; 59
    1066:	0f 90       	pop	r0
    1068:	0f be       	out	0x3f, r0	; 63
    106a:	0f 90       	pop	r0
    106c:	1f 90       	pop	r1
    106e:	18 95       	reti

00001070 <__vector_39>:
    1070:	1f 92       	push	r1
    1072:	0f 92       	push	r0
    1074:	0f b6       	in	r0, 0x3f	; 63
    1076:	0f 92       	push	r0
    1078:	11 24       	eor	r1, r1
    107a:	0b b6       	in	r0, 0x3b	; 59
    107c:	0f 92       	push	r0
    107e:	2f 93       	push	r18
    1080:	3f 93       	push	r19
    1082:	4f 93       	push	r20
    1084:	5f 93       	push	r21
    1086:	6f 93       	push	r22
    1088:	7f 93       	push	r23
    108a:	8f 93       	push	r24
    108c:	9f 93       	push	r25
    108e:	af 93       	push	r26
    1090:	bf 93       	push	r27
    1092:	ef 93       	push	r30
    1094:	ff 93       	push	r31
    1096:	40 91 64 02 	lds	r20, 0x0264	; 0x800264 <__TEXT_REGION_LENGTH__+0x700264>
    109a:	50 91 65 02 	lds	r21, 0x0265	; 0x800265 <__TEXT_REGION_LENGTH__+0x700265>
    109e:	e0 91 07 24 	lds	r30, 0x2407	; 0x802407 <adcb_callback>
    10a2:	f0 91 08 24 	lds	r31, 0x2408	; 0x802408 <adcb_callback+0x1>
    10a6:	61 e0       	ldi	r22, 0x01	; 1
    10a8:	80 e4       	ldi	r24, 0x40	; 64
    10aa:	92 e0       	ldi	r25, 0x02	; 2
    10ac:	19 95       	eicall
    10ae:	ff 91       	pop	r31
    10b0:	ef 91       	pop	r30
    10b2:	bf 91       	pop	r27
    10b4:	af 91       	pop	r26
    10b6:	9f 91       	pop	r25
    10b8:	8f 91       	pop	r24
    10ba:	7f 91       	pop	r23
    10bc:	6f 91       	pop	r22
    10be:	5f 91       	pop	r21
    10c0:	4f 91       	pop	r20
    10c2:	3f 91       	pop	r19
    10c4:	2f 91       	pop	r18
    10c6:	0f 90       	pop	r0
    10c8:	0b be       	out	0x3b, r0	; 59
    10ca:	0f 90       	pop	r0
    10cc:	0f be       	out	0x3f, r0	; 63
    10ce:	0f 90       	pop	r0
    10d0:	1f 90       	pop	r1
    10d2:	18 95       	reti

000010d4 <__vector_40>:
    10d4:	1f 92       	push	r1
    10d6:	0f 92       	push	r0
    10d8:	0f b6       	in	r0, 0x3f	; 63
    10da:	0f 92       	push	r0
    10dc:	11 24       	eor	r1, r1
    10de:	0b b6       	in	r0, 0x3b	; 59
    10e0:	0f 92       	push	r0
    10e2:	2f 93       	push	r18
    10e4:	3f 93       	push	r19
    10e6:	4f 93       	push	r20
    10e8:	5f 93       	push	r21
    10ea:	6f 93       	push	r22
    10ec:	7f 93       	push	r23
    10ee:	8f 93       	push	r24
    10f0:	9f 93       	push	r25
    10f2:	af 93       	push	r26
    10f4:	bf 93       	push	r27
    10f6:	ef 93       	push	r30
    10f8:	ff 93       	push	r31
    10fa:	40 91 6c 02 	lds	r20, 0x026C	; 0x80026c <__TEXT_REGION_LENGTH__+0x70026c>
    10fe:	50 91 6d 02 	lds	r21, 0x026D	; 0x80026d <__TEXT_REGION_LENGTH__+0x70026d>
    1102:	e0 91 07 24 	lds	r30, 0x2407	; 0x802407 <adcb_callback>
    1106:	f0 91 08 24 	lds	r31, 0x2408	; 0x802408 <adcb_callback+0x1>
    110a:	62 e0       	ldi	r22, 0x02	; 2
    110c:	80 e4       	ldi	r24, 0x40	; 64
    110e:	92 e0       	ldi	r25, 0x02	; 2
    1110:	19 95       	eicall
    1112:	ff 91       	pop	r31
    1114:	ef 91       	pop	r30
    1116:	bf 91       	pop	r27
    1118:	af 91       	pop	r26
    111a:	9f 91       	pop	r25
    111c:	8f 91       	pop	r24
    111e:	7f 91       	pop	r23
    1120:	6f 91       	pop	r22
    1122:	5f 91       	pop	r21
    1124:	4f 91       	pop	r20
    1126:	3f 91       	pop	r19
    1128:	2f 91       	pop	r18
    112a:	0f 90       	pop	r0
    112c:	0b be       	out	0x3b, r0	; 59
    112e:	0f 90       	pop	r0
    1130:	0f be       	out	0x3f, r0	; 63
    1132:	0f 90       	pop	r0
    1134:	1f 90       	pop	r1
    1136:	18 95       	reti

00001138 <__vector_41>:
    1138:	1f 92       	push	r1
    113a:	0f 92       	push	r0
    113c:	0f b6       	in	r0, 0x3f	; 63
    113e:	0f 92       	push	r0
    1140:	11 24       	eor	r1, r1
    1142:	0b b6       	in	r0, 0x3b	; 59
    1144:	0f 92       	push	r0
    1146:	2f 93       	push	r18
    1148:	3f 93       	push	r19
    114a:	4f 93       	push	r20
    114c:	5f 93       	push	r21
    114e:	6f 93       	push	r22
    1150:	7f 93       	push	r23
    1152:	8f 93       	push	r24
    1154:	9f 93       	push	r25
    1156:	af 93       	push	r26
    1158:	bf 93       	push	r27
    115a:	ef 93       	push	r30
    115c:	ff 93       	push	r31
    115e:	40 91 74 02 	lds	r20, 0x0274	; 0x800274 <__TEXT_REGION_LENGTH__+0x700274>
    1162:	50 91 75 02 	lds	r21, 0x0275	; 0x800275 <__TEXT_REGION_LENGTH__+0x700275>
    1166:	e0 91 07 24 	lds	r30, 0x2407	; 0x802407 <adcb_callback>
    116a:	f0 91 08 24 	lds	r31, 0x2408	; 0x802408 <adcb_callback+0x1>
    116e:	64 e0       	ldi	r22, 0x04	; 4
    1170:	80 e4       	ldi	r24, 0x40	; 64
    1172:	92 e0       	ldi	r25, 0x02	; 2
    1174:	19 95       	eicall
    1176:	ff 91       	pop	r31
    1178:	ef 91       	pop	r30
    117a:	bf 91       	pop	r27
    117c:	af 91       	pop	r26
    117e:	9f 91       	pop	r25
    1180:	8f 91       	pop	r24
    1182:	7f 91       	pop	r23
    1184:	6f 91       	pop	r22
    1186:	5f 91       	pop	r21
    1188:	4f 91       	pop	r20
    118a:	3f 91       	pop	r19
    118c:	2f 91       	pop	r18
    118e:	0f 90       	pop	r0
    1190:	0b be       	out	0x3b, r0	; 59
    1192:	0f 90       	pop	r0
    1194:	0f be       	out	0x3f, r0	; 63
    1196:	0f 90       	pop	r0
    1198:	1f 90       	pop	r1
    119a:	18 95       	reti

0000119c <__vector_42>:
    119c:	1f 92       	push	r1
    119e:	0f 92       	push	r0
    11a0:	0f b6       	in	r0, 0x3f	; 63
    11a2:	0f 92       	push	r0
    11a4:	11 24       	eor	r1, r1
    11a6:	0b b6       	in	r0, 0x3b	; 59
    11a8:	0f 92       	push	r0
    11aa:	2f 93       	push	r18
    11ac:	3f 93       	push	r19
    11ae:	4f 93       	push	r20
    11b0:	5f 93       	push	r21
    11b2:	6f 93       	push	r22
    11b4:	7f 93       	push	r23
    11b6:	8f 93       	push	r24
    11b8:	9f 93       	push	r25
    11ba:	af 93       	push	r26
    11bc:	bf 93       	push	r27
    11be:	ef 93       	push	r30
    11c0:	ff 93       	push	r31
    11c2:	40 91 7c 02 	lds	r20, 0x027C	; 0x80027c <__TEXT_REGION_LENGTH__+0x70027c>
    11c6:	50 91 7d 02 	lds	r21, 0x027D	; 0x80027d <__TEXT_REGION_LENGTH__+0x70027d>
    11ca:	e0 91 07 24 	lds	r30, 0x2407	; 0x802407 <adcb_callback>
    11ce:	f0 91 08 24 	lds	r31, 0x2408	; 0x802408 <adcb_callback+0x1>
    11d2:	68 e0       	ldi	r22, 0x08	; 8
    11d4:	80 e4       	ldi	r24, 0x40	; 64
    11d6:	92 e0       	ldi	r25, 0x02	; 2
    11d8:	19 95       	eicall
    11da:	ff 91       	pop	r31
    11dc:	ef 91       	pop	r30
    11de:	bf 91       	pop	r27
    11e0:	af 91       	pop	r26
    11e2:	9f 91       	pop	r25
    11e4:	8f 91       	pop	r24
    11e6:	7f 91       	pop	r23
    11e8:	6f 91       	pop	r22
    11ea:	5f 91       	pop	r21
    11ec:	4f 91       	pop	r20
    11ee:	3f 91       	pop	r19
    11f0:	2f 91       	pop	r18
    11f2:	0f 90       	pop	r0
    11f4:	0b be       	out	0x3b, r0	; 59
    11f6:	0f 90       	pop	r0
    11f8:	0f be       	out	0x3f, r0	; 63
    11fa:	0f 90       	pop	r0
    11fc:	1f 90       	pop	r1
    11fe:	18 95       	reti

00001200 <adc_write_configuration>:
    1200:	df 92       	push	r13
    1202:	ef 92       	push	r14
    1204:	ff 92       	push	r15
    1206:	0f 93       	push	r16
    1208:	1f 93       	push	r17
    120a:	cf 93       	push	r28
    120c:	df 93       	push	r29
    120e:	ec 01       	movw	r28, r24
    1210:	8b 01       	movw	r16, r22
    1212:	81 15       	cp	r24, r1
    1214:	22 e0       	ldi	r18, 0x02	; 2
    1216:	92 07       	cpc	r25, r18
    1218:	71 f4       	brne	.+28     	; 0x1236 <adc_write_configuration+0x36>
    121a:	61 e2       	ldi	r22, 0x21	; 33
    121c:	70 e0       	ldi	r23, 0x00	; 0
    121e:	82 e0       	ldi	r24, 0x02	; 2
    1220:	d4 d0       	rcall	.+424    	; 0x13ca <nvm_read_byte>
    1222:	e8 2e       	mov	r14, r24
    1224:	f1 2c       	mov	r15, r1
    1226:	60 e2       	ldi	r22, 0x20	; 32
    1228:	70 e0       	ldi	r23, 0x00	; 0
    122a:	82 e0       	ldi	r24, 0x02	; 2
    122c:	ce d0       	rcall	.+412    	; 0x13ca <nvm_read_byte>
    122e:	fe 2c       	mov	r15, r14
    1230:	ee 24       	eor	r14, r14
    1232:	e8 2a       	or	r14, r24
    1234:	10 c0       	rjmp	.+32     	; 0x1256 <adc_write_configuration+0x56>
    1236:	80 34       	cpi	r24, 0x40	; 64
    1238:	92 40       	sbci	r25, 0x02	; 2
    123a:	51 f5       	brne	.+84     	; 0x1290 <adc_write_configuration+0x90>
    123c:	65 e2       	ldi	r22, 0x25	; 37
    123e:	70 e0       	ldi	r23, 0x00	; 0
    1240:	82 e0       	ldi	r24, 0x02	; 2
    1242:	c3 d0       	rcall	.+390    	; 0x13ca <nvm_read_byte>
    1244:	e8 2e       	mov	r14, r24
    1246:	f1 2c       	mov	r15, r1
    1248:	64 e2       	ldi	r22, 0x24	; 36
    124a:	70 e0       	ldi	r23, 0x00	; 0
    124c:	82 e0       	ldi	r24, 0x02	; 2
    124e:	bd d0       	rcall	.+378    	; 0x13ca <nvm_read_byte>
    1250:	fe 2c       	mov	r15, r14
    1252:	ee 24       	eor	r14, r14
    1254:	e8 2a       	or	r14, r24
    1256:	df b6       	in	r13, 0x3f	; 63
    1258:	f8 94       	cli
    125a:	ce 01       	movw	r24, r28
    125c:	ee dd       	rcall	.-1060   	; 0xe3a <adc_enable_clock>
    125e:	88 81       	ld	r24, Y
    1260:	92 e0       	ldi	r25, 0x02	; 2
    1262:	98 83       	st	Y, r25
    1264:	ec 86       	std	Y+12, r14	; 0x0c
    1266:	fd 86       	std	Y+13, r15	; 0x0d
    1268:	f8 01       	movw	r30, r16
    126a:	25 81       	ldd	r18, Z+5	; 0x05
    126c:	36 81       	ldd	r19, Z+6	; 0x06
    126e:	28 8f       	std	Y+24, r18	; 0x18
    1270:	39 8f       	std	Y+25, r19	; 0x19
    1272:	92 81       	ldd	r25, Z+2	; 0x02
    1274:	9a 83       	std	Y+2, r25	; 0x02
    1276:	94 81       	ldd	r25, Z+4	; 0x04
    1278:	9c 83       	std	Y+4, r25	; 0x04
    127a:	93 81       	ldd	r25, Z+3	; 0x03
    127c:	9b 83       	std	Y+3, r25	; 0x03
    127e:	91 81       	ldd	r25, Z+1	; 0x01
    1280:	99 83       	std	Y+1, r25	; 0x01
    1282:	81 70       	andi	r24, 0x01	; 1
    1284:	90 81       	ld	r25, Z
    1286:	89 2b       	or	r24, r25
    1288:	88 83       	st	Y, r24
    128a:	ce 01       	movw	r24, r28
    128c:	f5 dd       	rcall	.-1046   	; 0xe78 <adc_disable_clock>
    128e:	df be       	out	0x3f, r13	; 63
    1290:	df 91       	pop	r29
    1292:	cf 91       	pop	r28
    1294:	1f 91       	pop	r17
    1296:	0f 91       	pop	r16
    1298:	ff 90       	pop	r15
    129a:	ef 90       	pop	r14
    129c:	df 90       	pop	r13
    129e:	08 95       	ret

000012a0 <adc_read_configuration>:
    12a0:	ff 92       	push	r15
    12a2:	0f 93       	push	r16
    12a4:	1f 93       	push	r17
    12a6:	cf 93       	push	r28
    12a8:	df 93       	push	r29
    12aa:	ec 01       	movw	r28, r24
    12ac:	8b 01       	movw	r16, r22
    12ae:	ff b6       	in	r15, 0x3f	; 63
    12b0:	f8 94       	cli
    12b2:	c3 dd       	rcall	.-1146   	; 0xe3a <adc_enable_clock>
    12b4:	88 81       	ld	r24, Y
    12b6:	80 7c       	andi	r24, 0xC0	; 192
    12b8:	f8 01       	movw	r30, r16
    12ba:	80 83       	st	Z, r24
    12bc:	88 8d       	ldd	r24, Y+24	; 0x18
    12be:	99 8d       	ldd	r25, Y+25	; 0x19
    12c0:	85 83       	std	Z+5, r24	; 0x05
    12c2:	96 83       	std	Z+6, r25	; 0x06
    12c4:	8a 81       	ldd	r24, Y+2	; 0x02
    12c6:	82 83       	std	Z+2, r24	; 0x02
    12c8:	8c 81       	ldd	r24, Y+4	; 0x04
    12ca:	84 83       	std	Z+4, r24	; 0x04
    12cc:	8b 81       	ldd	r24, Y+3	; 0x03
    12ce:	83 83       	std	Z+3, r24	; 0x03
    12d0:	89 81       	ldd	r24, Y+1	; 0x01
    12d2:	81 83       	std	Z+1, r24	; 0x01
    12d4:	ce 01       	movw	r24, r28
    12d6:	d0 dd       	rcall	.-1120   	; 0xe78 <adc_disable_clock>
    12d8:	ff be       	out	0x3f, r15	; 63
    12da:	df 91       	pop	r29
    12dc:	cf 91       	pop	r28
    12de:	1f 91       	pop	r17
    12e0:	0f 91       	pop	r16
    12e2:	ff 90       	pop	r15
    12e4:	08 95       	ret

000012e6 <adcch_write_configuration>:
    12e6:	cf 92       	push	r12
    12e8:	df 92       	push	r13
    12ea:	ef 92       	push	r14
    12ec:	ff 92       	push	r15
    12ee:	0f 93       	push	r16
    12f0:	1f 93       	push	r17
    12f2:	cf 93       	push	r28
    12f4:	df 93       	push	r29
    12f6:	7c 01       	movw	r14, r24
    12f8:	d6 2e       	mov	r13, r22
    12fa:	8a 01       	movw	r16, r20
    12fc:	86 2f       	mov	r24, r22
    12fe:	83 70       	andi	r24, 0x03	; 3
    1300:	29 f4       	brne	.+10     	; 0x130c <adcch_write_configuration+0x26>
    1302:	96 2f       	mov	r25, r22
    1304:	96 95       	lsr	r25
    1306:	96 95       	lsr	r25
    1308:	82 e0       	ldi	r24, 0x02	; 2
    130a:	02 c0       	rjmp	.+4      	; 0x1310 <adcch_write_configuration+0x2a>
    130c:	96 2f       	mov	r25, r22
    130e:	80 e0       	ldi	r24, 0x00	; 0
    1310:	90 ff       	sbrs	r25, 0
    1312:	8f 5f       	subi	r24, 0xFF	; 255
    1314:	e7 01       	movw	r28, r14
    1316:	a0 96       	adiw	r28, 0x20	; 32
    1318:	98 e0       	ldi	r25, 0x08	; 8
    131a:	89 9f       	mul	r24, r25
    131c:	c0 0d       	add	r28, r0
    131e:	d1 1d       	adc	r29, r1
    1320:	11 24       	eor	r1, r1
    1322:	cf b6       	in	r12, 0x3f	; 63
    1324:	f8 94       	cli
    1326:	c7 01       	movw	r24, r14
    1328:	88 dd       	rcall	.-1264   	; 0xe3a <adc_enable_clock>
    132a:	f8 01       	movw	r30, r16
    132c:	80 81       	ld	r24, Z
    132e:	88 83       	st	Y, r24
    1330:	82 81       	ldd	r24, Z+2	; 0x02
    1332:	8a 83       	std	Y+2, r24	; 0x02
    1334:	81 81       	ldd	r24, Z+1	; 0x01
    1336:	89 83       	std	Y+1, r24	; 0x01
    1338:	d0 fe       	sbrs	r13, 0
    133a:	02 c0       	rjmp	.+4      	; 0x1340 <adcch_write_configuration+0x5a>
    133c:	83 81       	ldd	r24, Z+3	; 0x03
    133e:	8e 83       	std	Y+6, r24	; 0x06
    1340:	c7 01       	movw	r24, r14
    1342:	9a dd       	rcall	.-1228   	; 0xe78 <adc_disable_clock>
    1344:	cf be       	out	0x3f, r12	; 63
    1346:	df 91       	pop	r29
    1348:	cf 91       	pop	r28
    134a:	1f 91       	pop	r17
    134c:	0f 91       	pop	r16
    134e:	ff 90       	pop	r15
    1350:	ef 90       	pop	r14
    1352:	df 90       	pop	r13
    1354:	cf 90       	pop	r12
    1356:	08 95       	ret

00001358 <adcch_read_configuration>:
    1358:	cf 92       	push	r12
    135a:	df 92       	push	r13
    135c:	ef 92       	push	r14
    135e:	ff 92       	push	r15
    1360:	0f 93       	push	r16
    1362:	1f 93       	push	r17
    1364:	cf 93       	push	r28
    1366:	df 93       	push	r29
    1368:	7c 01       	movw	r14, r24
    136a:	d6 2e       	mov	r13, r22
    136c:	8a 01       	movw	r16, r20
    136e:	86 2f       	mov	r24, r22
    1370:	83 70       	andi	r24, 0x03	; 3
    1372:	29 f4       	brne	.+10     	; 0x137e <adcch_read_configuration+0x26>
    1374:	96 2f       	mov	r25, r22
    1376:	96 95       	lsr	r25
    1378:	96 95       	lsr	r25
    137a:	82 e0       	ldi	r24, 0x02	; 2
    137c:	02 c0       	rjmp	.+4      	; 0x1382 <adcch_read_configuration+0x2a>
    137e:	96 2f       	mov	r25, r22
    1380:	80 e0       	ldi	r24, 0x00	; 0
    1382:	90 ff       	sbrs	r25, 0
    1384:	8f 5f       	subi	r24, 0xFF	; 255
    1386:	e7 01       	movw	r28, r14
    1388:	a0 96       	adiw	r28, 0x20	; 32
    138a:	98 e0       	ldi	r25, 0x08	; 8
    138c:	89 9f       	mul	r24, r25
    138e:	c0 0d       	add	r28, r0
    1390:	d1 1d       	adc	r29, r1
    1392:	11 24       	eor	r1, r1
    1394:	cf b6       	in	r12, 0x3f	; 63
    1396:	f8 94       	cli
    1398:	c7 01       	movw	r24, r14
    139a:	4f dd       	rcall	.-1378   	; 0xe3a <adc_enable_clock>
    139c:	88 81       	ld	r24, Y
    139e:	f8 01       	movw	r30, r16
    13a0:	80 83       	st	Z, r24
    13a2:	8a 81       	ldd	r24, Y+2	; 0x02
    13a4:	82 83       	std	Z+2, r24	; 0x02
    13a6:	89 81       	ldd	r24, Y+1	; 0x01
    13a8:	81 83       	std	Z+1, r24	; 0x01
    13aa:	d0 fe       	sbrs	r13, 0
    13ac:	02 c0       	rjmp	.+4      	; 0x13b2 <adcch_read_configuration+0x5a>
    13ae:	8e 81       	ldd	r24, Y+6	; 0x06
    13b0:	83 83       	std	Z+3, r24	; 0x03
    13b2:	c7 01       	movw	r24, r14
    13b4:	61 dd       	rcall	.-1342   	; 0xe78 <adc_disable_clock>
    13b6:	cf be       	out	0x3f, r12	; 63
    13b8:	df 91       	pop	r29
    13ba:	cf 91       	pop	r28
    13bc:	1f 91       	pop	r17
    13be:	0f 91       	pop	r16
    13c0:	ff 90       	pop	r15
    13c2:	ef 90       	pop	r14
    13c4:	df 90       	pop	r13
    13c6:	cf 90       	pop	r12
    13c8:	08 95       	ret

000013ca <nvm_read_byte>:
    13ca:	40 91 ca 01 	lds	r20, 0x01CA	; 0x8001ca <__TEXT_REGION_LENGTH__+0x7001ca>
    13ce:	e6 2f       	mov	r30, r22
    13d0:	f7 2f       	mov	r31, r23
    13d2:	80 93 ca 01 	sts	0x01CA, r24	; 0x8001ca <__TEXT_REGION_LENGTH__+0x7001ca>
    13d6:	84 91       	lpm	r24, Z
    13d8:	40 93 ca 01 	sts	0x01CA, r20	; 0x8001ca <__TEXT_REGION_LENGTH__+0x7001ca>
    13dc:	08 95       	ret

000013de <usart_getchar>:
    13de:	fc 01       	movw	r30, r24
    13e0:	91 81       	ldd	r25, Z+1	; 0x01
    13e2:	99 23       	and	r25, r25
    13e4:	ec f7       	brge	.-6      	; 0x13e0 <usart_getchar+0x2>
    13e6:	80 81       	ld	r24, Z
    13e8:	08 95       	ret

000013ea <usart_set_baudrate>:
    13ea:	4f 92       	push	r4
    13ec:	5f 92       	push	r5
    13ee:	6f 92       	push	r6
    13f0:	7f 92       	push	r7
    13f2:	8f 92       	push	r8
    13f4:	9f 92       	push	r9
    13f6:	af 92       	push	r10
    13f8:	bf 92       	push	r11
    13fa:	ef 92       	push	r14
    13fc:	ff 92       	push	r15
    13fe:	0f 93       	push	r16
    1400:	1f 93       	push	r17
    1402:	cf 93       	push	r28
    1404:	7c 01       	movw	r14, r24
    1406:	4a 01       	movw	r8, r20
    1408:	5b 01       	movw	r10, r22
    140a:	28 01       	movw	r4, r16
    140c:	39 01       	movw	r6, r18
    140e:	fc 01       	movw	r30, r24
    1410:	84 81       	ldd	r24, Z+4	; 0x04
    1412:	82 ff       	sbrs	r24, 2
    1414:	16 c0       	rjmp	.+44     	; 0x1442 <usart_set_baudrate+0x58>
    1416:	d9 01       	movw	r26, r18
    1418:	c8 01       	movw	r24, r16
    141a:	68 94       	set
    141c:	12 f8       	bld	r1, 2
    141e:	b6 95       	lsr	r27
    1420:	a7 95       	ror	r26
    1422:	97 95       	ror	r25
    1424:	87 95       	ror	r24
    1426:	16 94       	lsr	r1
    1428:	d1 f7       	brne	.-12     	; 0x141e <usart_set_baudrate+0x34>
    142a:	b9 01       	movw	r22, r18
    142c:	a8 01       	movw	r20, r16
    142e:	03 2e       	mov	r0, r19
    1430:	36 e1       	ldi	r19, 0x16	; 22
    1432:	76 95       	lsr	r23
    1434:	67 95       	ror	r22
    1436:	57 95       	ror	r21
    1438:	47 95       	ror	r20
    143a:	3a 95       	dec	r19
    143c:	d1 f7       	brne	.-12     	; 0x1432 <usart_set_baudrate+0x48>
    143e:	30 2d       	mov	r19, r0
    1440:	15 c0       	rjmp	.+42     	; 0x146c <usart_set_baudrate+0x82>
    1442:	d9 01       	movw	r26, r18
    1444:	c8 01       	movw	r24, r16
    1446:	68 94       	set
    1448:	13 f8       	bld	r1, 3
    144a:	b6 95       	lsr	r27
    144c:	a7 95       	ror	r26
    144e:	97 95       	ror	r25
    1450:	87 95       	ror	r24
    1452:	16 94       	lsr	r1
    1454:	d1 f7       	brne	.-12     	; 0x144a <usart_set_baudrate+0x60>
    1456:	b9 01       	movw	r22, r18
    1458:	a8 01       	movw	r20, r16
    145a:	03 2e       	mov	r0, r19
    145c:	37 e1       	ldi	r19, 0x17	; 23
    145e:	76 95       	lsr	r23
    1460:	67 95       	ror	r22
    1462:	57 95       	ror	r21
    1464:	47 95       	ror	r20
    1466:	3a 95       	dec	r19
    1468:	d1 f7       	brne	.-12     	; 0x145e <usart_set_baudrate+0x74>
    146a:	30 2d       	mov	r19, r0
    146c:	88 15       	cp	r24, r8
    146e:	99 05       	cpc	r25, r9
    1470:	aa 05       	cpc	r26, r10
    1472:	bb 05       	cpc	r27, r11
    1474:	08 f4       	brcc	.+2      	; 0x1478 <usart_set_baudrate+0x8e>
    1476:	a6 c0       	rjmp	.+332    	; 0x15c4 <usart_set_baudrate+0x1da>
    1478:	84 16       	cp	r8, r20
    147a:	95 06       	cpc	r9, r21
    147c:	a6 06       	cpc	r10, r22
    147e:	b7 06       	cpc	r11, r23
    1480:	08 f4       	brcc	.+2      	; 0x1484 <usart_set_baudrate+0x9a>
    1482:	a2 c0       	rjmp	.+324    	; 0x15c8 <usart_set_baudrate+0x1de>
    1484:	f7 01       	movw	r30, r14
    1486:	84 81       	ldd	r24, Z+4	; 0x04
    1488:	82 fd       	sbrc	r24, 2
    148a:	04 c0       	rjmp	.+8      	; 0x1494 <usart_set_baudrate+0xaa>
    148c:	88 0c       	add	r8, r8
    148e:	99 1c       	adc	r9, r9
    1490:	aa 1c       	adc	r10, r10
    1492:	bb 1c       	adc	r11, r11
    1494:	c3 01       	movw	r24, r6
    1496:	b2 01       	movw	r22, r4
    1498:	a5 01       	movw	r20, r10
    149a:	94 01       	movw	r18, r8
    149c:	0e 94 63 1c 	call	0x38c6	; 0x38c6 <__udivmodsi4>
    14a0:	2f 3f       	cpi	r18, 0xFF	; 255
    14a2:	31 05       	cpc	r19, r1
    14a4:	41 05       	cpc	r20, r1
    14a6:	51 05       	cpc	r21, r1
    14a8:	08 f4       	brcc	.+2      	; 0x14ac <usart_set_baudrate+0xc2>
    14aa:	90 c0       	rjmp	.+288    	; 0x15cc <usart_set_baudrate+0x1e2>
    14ac:	8f ef       	ldi	r24, 0xFF	; 255
    14ae:	90 e0       	ldi	r25, 0x00	; 0
    14b0:	a0 e0       	ldi	r26, 0x00	; 0
    14b2:	b0 e0       	ldi	r27, 0x00	; 0
    14b4:	c9 ef       	ldi	r28, 0xF9	; 249
    14b6:	05 c0       	rjmp	.+10     	; 0x14c2 <usart_set_baudrate+0xd8>
    14b8:	28 17       	cp	r18, r24
    14ba:	39 07       	cpc	r19, r25
    14bc:	4a 07       	cpc	r20, r26
    14be:	5b 07       	cpc	r21, r27
    14c0:	58 f0       	brcs	.+22     	; 0x14d8 <usart_set_baudrate+0xee>
    14c2:	88 0f       	add	r24, r24
    14c4:	99 1f       	adc	r25, r25
    14c6:	aa 1f       	adc	r26, r26
    14c8:	bb 1f       	adc	r27, r27
    14ca:	cd 3f       	cpi	r28, 0xFD	; 253
    14cc:	0c f4       	brge	.+2      	; 0x14d0 <usart_set_baudrate+0xe6>
    14ce:	81 60       	ori	r24, 0x01	; 1
    14d0:	cf 5f       	subi	r28, 0xFF	; 255
    14d2:	c7 30       	cpi	r28, 0x07	; 7
    14d4:	89 f7       	brne	.-30     	; 0x14b8 <usart_set_baudrate+0xce>
    14d6:	4f c0       	rjmp	.+158    	; 0x1576 <usart_set_baudrate+0x18c>
    14d8:	cc 23       	and	r28, r28
    14da:	0c f0       	brlt	.+2      	; 0x14de <usart_set_baudrate+0xf4>
    14dc:	4c c0       	rjmp	.+152    	; 0x1576 <usart_set_baudrate+0x18c>
    14de:	d5 01       	movw	r26, r10
    14e0:	c4 01       	movw	r24, r8
    14e2:	88 0f       	add	r24, r24
    14e4:	99 1f       	adc	r25, r25
    14e6:	aa 1f       	adc	r26, r26
    14e8:	bb 1f       	adc	r27, r27
    14ea:	88 0f       	add	r24, r24
    14ec:	99 1f       	adc	r25, r25
    14ee:	aa 1f       	adc	r26, r26
    14f0:	bb 1f       	adc	r27, r27
    14f2:	88 0f       	add	r24, r24
    14f4:	99 1f       	adc	r25, r25
    14f6:	aa 1f       	adc	r26, r26
    14f8:	bb 1f       	adc	r27, r27
    14fa:	48 1a       	sub	r4, r24
    14fc:	59 0a       	sbc	r5, r25
    14fe:	6a 0a       	sbc	r6, r26
    1500:	7b 0a       	sbc	r7, r27
    1502:	ce 3f       	cpi	r28, 0xFE	; 254
    1504:	f4 f4       	brge	.+60     	; 0x1542 <usart_set_baudrate+0x158>
    1506:	8d ef       	ldi	r24, 0xFD	; 253
    1508:	9f ef       	ldi	r25, 0xFF	; 255
    150a:	8c 1b       	sub	r24, r28
    150c:	91 09       	sbc	r25, r1
    150e:	c7 fd       	sbrc	r28, 7
    1510:	93 95       	inc	r25
    1512:	04 c0       	rjmp	.+8      	; 0x151c <usart_set_baudrate+0x132>
    1514:	44 0c       	add	r4, r4
    1516:	55 1c       	adc	r5, r5
    1518:	66 1c       	adc	r6, r6
    151a:	77 1c       	adc	r7, r7
    151c:	8a 95       	dec	r24
    151e:	d2 f7       	brpl	.-12     	; 0x1514 <usart_set_baudrate+0x12a>
    1520:	d5 01       	movw	r26, r10
    1522:	c4 01       	movw	r24, r8
    1524:	b6 95       	lsr	r27
    1526:	a7 95       	ror	r26
    1528:	97 95       	ror	r25
    152a:	87 95       	ror	r24
    152c:	bc 01       	movw	r22, r24
    152e:	cd 01       	movw	r24, r26
    1530:	64 0d       	add	r22, r4
    1532:	75 1d       	adc	r23, r5
    1534:	86 1d       	adc	r24, r6
    1536:	97 1d       	adc	r25, r7
    1538:	a5 01       	movw	r20, r10
    153a:	94 01       	movw	r18, r8
    153c:	0e 94 63 1c 	call	0x38c6	; 0x38c6 <__udivmodsi4>
    1540:	37 c0       	rjmp	.+110    	; 0x15b0 <usart_set_baudrate+0x1c6>
    1542:	83 e0       	ldi	r24, 0x03	; 3
    1544:	8c 0f       	add	r24, r28
    1546:	a5 01       	movw	r20, r10
    1548:	94 01       	movw	r18, r8
    154a:	04 c0       	rjmp	.+8      	; 0x1554 <usart_set_baudrate+0x16a>
    154c:	22 0f       	add	r18, r18
    154e:	33 1f       	adc	r19, r19
    1550:	44 1f       	adc	r20, r20
    1552:	55 1f       	adc	r21, r21
    1554:	8a 95       	dec	r24
    1556:	d2 f7       	brpl	.-12     	; 0x154c <usart_set_baudrate+0x162>
    1558:	da 01       	movw	r26, r20
    155a:	c9 01       	movw	r24, r18
    155c:	b6 95       	lsr	r27
    155e:	a7 95       	ror	r26
    1560:	97 95       	ror	r25
    1562:	87 95       	ror	r24
    1564:	bc 01       	movw	r22, r24
    1566:	cd 01       	movw	r24, r26
    1568:	64 0d       	add	r22, r4
    156a:	75 1d       	adc	r23, r5
    156c:	86 1d       	adc	r24, r6
    156e:	97 1d       	adc	r25, r7
    1570:	0e 94 63 1c 	call	0x38c6	; 0x38c6 <__udivmodsi4>
    1574:	1d c0       	rjmp	.+58     	; 0x15b0 <usart_set_baudrate+0x1c6>
    1576:	83 e0       	ldi	r24, 0x03	; 3
    1578:	8c 0f       	add	r24, r28
    157a:	a5 01       	movw	r20, r10
    157c:	94 01       	movw	r18, r8
    157e:	04 c0       	rjmp	.+8      	; 0x1588 <usart_set_baudrate+0x19e>
    1580:	22 0f       	add	r18, r18
    1582:	33 1f       	adc	r19, r19
    1584:	44 1f       	adc	r20, r20
    1586:	55 1f       	adc	r21, r21
    1588:	8a 95       	dec	r24
    158a:	d2 f7       	brpl	.-12     	; 0x1580 <usart_set_baudrate+0x196>
    158c:	da 01       	movw	r26, r20
    158e:	c9 01       	movw	r24, r18
    1590:	b6 95       	lsr	r27
    1592:	a7 95       	ror	r26
    1594:	97 95       	ror	r25
    1596:	87 95       	ror	r24
    1598:	bc 01       	movw	r22, r24
    159a:	cd 01       	movw	r24, r26
    159c:	64 0d       	add	r22, r4
    159e:	75 1d       	adc	r23, r5
    15a0:	86 1d       	adc	r24, r6
    15a2:	97 1d       	adc	r25, r7
    15a4:	0e 94 63 1c 	call	0x38c6	; 0x38c6 <__udivmodsi4>
    15a8:	21 50       	subi	r18, 0x01	; 1
    15aa:	31 09       	sbc	r19, r1
    15ac:	41 09       	sbc	r20, r1
    15ae:	51 09       	sbc	r21, r1
    15b0:	83 2f       	mov	r24, r19
    15b2:	8f 70       	andi	r24, 0x0F	; 15
    15b4:	c2 95       	swap	r28
    15b6:	c0 7f       	andi	r28, 0xF0	; 240
    15b8:	c8 2b       	or	r28, r24
    15ba:	f7 01       	movw	r30, r14
    15bc:	c7 83       	std	Z+7, r28	; 0x07
    15be:	26 83       	std	Z+6, r18	; 0x06
    15c0:	81 e0       	ldi	r24, 0x01	; 1
    15c2:	18 c0       	rjmp	.+48     	; 0x15f4 <usart_set_baudrate+0x20a>
    15c4:	80 e0       	ldi	r24, 0x00	; 0
    15c6:	16 c0       	rjmp	.+44     	; 0x15f4 <usart_set_baudrate+0x20a>
    15c8:	80 e0       	ldi	r24, 0x00	; 0
    15ca:	14 c0       	rjmp	.+40     	; 0x15f4 <usart_set_baudrate+0x20a>
    15cc:	d5 01       	movw	r26, r10
    15ce:	c4 01       	movw	r24, r8
    15d0:	88 0f       	add	r24, r24
    15d2:	99 1f       	adc	r25, r25
    15d4:	aa 1f       	adc	r26, r26
    15d6:	bb 1f       	adc	r27, r27
    15d8:	88 0f       	add	r24, r24
    15da:	99 1f       	adc	r25, r25
    15dc:	aa 1f       	adc	r26, r26
    15de:	bb 1f       	adc	r27, r27
    15e0:	88 0f       	add	r24, r24
    15e2:	99 1f       	adc	r25, r25
    15e4:	aa 1f       	adc	r26, r26
    15e6:	bb 1f       	adc	r27, r27
    15e8:	48 1a       	sub	r4, r24
    15ea:	59 0a       	sbc	r5, r25
    15ec:	6a 0a       	sbc	r6, r26
    15ee:	7b 0a       	sbc	r7, r27
    15f0:	c9 ef       	ldi	r28, 0xF9	; 249
    15f2:	89 cf       	rjmp	.-238    	; 0x1506 <usart_set_baudrate+0x11c>
    15f4:	cf 91       	pop	r28
    15f6:	1f 91       	pop	r17
    15f8:	0f 91       	pop	r16
    15fa:	ff 90       	pop	r15
    15fc:	ef 90       	pop	r14
    15fe:	bf 90       	pop	r11
    1600:	af 90       	pop	r10
    1602:	9f 90       	pop	r9
    1604:	8f 90       	pop	r8
    1606:	7f 90       	pop	r7
    1608:	6f 90       	pop	r6
    160a:	5f 90       	pop	r5
    160c:	4f 90       	pop	r4
    160e:	08 95       	ret

00001610 <usart_init_rs232>:
    1610:	0f 93       	push	r16
    1612:	1f 93       	push	r17
    1614:	cf 93       	push	r28
    1616:	df 93       	push	r29
    1618:	ec 01       	movw	r28, r24
    161a:	8b 01       	movw	r16, r22
    161c:	00 97       	sbiw	r24, 0x00	; 0
    161e:	09 f4       	brne	.+2      	; 0x1622 <usart_init_rs232+0x12>
    1620:	e6 c0       	rjmp	.+460    	; 0x17ee <usart_init_rs232+0x1de>
    1622:	80 3c       	cpi	r24, 0xC0	; 192
    1624:	91 05       	cpc	r25, r1
    1626:	21 f4       	brne	.+8      	; 0x1630 <usart_init_rs232+0x20>
    1628:	60 e1       	ldi	r22, 0x10	; 16
    162a:	80 e0       	ldi	r24, 0x00	; 0
    162c:	36 d9       	rcall	.-3476   	; 0x89a <sysclk_enable_module>
    162e:	df c0       	rjmp	.+446    	; 0x17ee <usart_init_rs232+0x1de>
    1630:	c0 38       	cpi	r28, 0x80	; 128
    1632:	81 e0       	ldi	r24, 0x01	; 1
    1634:	d8 07       	cpc	r29, r24
    1636:	21 f4       	brne	.+8      	; 0x1640 <usart_init_rs232+0x30>
    1638:	62 e0       	ldi	r22, 0x02	; 2
    163a:	80 e0       	ldi	r24, 0x00	; 0
    163c:	2e d9       	rcall	.-3492   	; 0x89a <sysclk_enable_module>
    163e:	d7 c0       	rjmp	.+430    	; 0x17ee <usart_init_rs232+0x1de>
    1640:	c1 15       	cp	r28, r1
    1642:	e1 e0       	ldi	r30, 0x01	; 1
    1644:	de 07       	cpc	r29, r30
    1646:	21 f4       	brne	.+8      	; 0x1650 <usart_init_rs232+0x40>
    1648:	61 e0       	ldi	r22, 0x01	; 1
    164a:	80 e0       	ldi	r24, 0x00	; 0
    164c:	26 d9       	rcall	.-3508   	; 0x89a <sysclk_enable_module>
    164e:	cf c0       	rjmp	.+414    	; 0x17ee <usart_init_rs232+0x1de>
    1650:	c0 38       	cpi	r28, 0x80	; 128
    1652:	f3 e0       	ldi	r31, 0x03	; 3
    1654:	df 07       	cpc	r29, r31
    1656:	21 f4       	brne	.+8      	; 0x1660 <usart_init_rs232+0x50>
    1658:	61 e0       	ldi	r22, 0x01	; 1
    165a:	81 e0       	ldi	r24, 0x01	; 1
    165c:	1e d9       	rcall	.-3524   	; 0x89a <sysclk_enable_module>
    165e:	c7 c0       	rjmp	.+398    	; 0x17ee <usart_init_rs232+0x1de>
    1660:	c0 39       	cpi	r28, 0x90	; 144
    1662:	83 e0       	ldi	r24, 0x03	; 3
    1664:	d8 07       	cpc	r29, r24
    1666:	21 f4       	brne	.+8      	; 0x1670 <usart_init_rs232+0x60>
    1668:	61 e0       	ldi	r22, 0x01	; 1
    166a:	82 e0       	ldi	r24, 0x02	; 2
    166c:	16 d9       	rcall	.-3540   	; 0x89a <sysclk_enable_module>
    166e:	bf c0       	rjmp	.+382    	; 0x17ee <usart_init_rs232+0x1de>
    1670:	c1 15       	cp	r28, r1
    1672:	e2 e0       	ldi	r30, 0x02	; 2
    1674:	de 07       	cpc	r29, r30
    1676:	21 f4       	brne	.+8      	; 0x1680 <usart_init_rs232+0x70>
    1678:	62 e0       	ldi	r22, 0x02	; 2
    167a:	81 e0       	ldi	r24, 0x01	; 1
    167c:	0e d9       	rcall	.-3556   	; 0x89a <sysclk_enable_module>
    167e:	b7 c0       	rjmp	.+366    	; 0x17ee <usart_init_rs232+0x1de>
    1680:	c0 34       	cpi	r28, 0x40	; 64
    1682:	f2 e0       	ldi	r31, 0x02	; 2
    1684:	df 07       	cpc	r29, r31
    1686:	21 f4       	brne	.+8      	; 0x1690 <usart_init_rs232+0x80>
    1688:	62 e0       	ldi	r22, 0x02	; 2
    168a:	82 e0       	ldi	r24, 0x02	; 2
    168c:	06 d9       	rcall	.-3572   	; 0x89a <sysclk_enable_module>
    168e:	af c0       	rjmp	.+350    	; 0x17ee <usart_init_rs232+0x1de>
    1690:	c0 32       	cpi	r28, 0x20	; 32
    1692:	83 e0       	ldi	r24, 0x03	; 3
    1694:	d8 07       	cpc	r29, r24
    1696:	21 f4       	brne	.+8      	; 0x16a0 <usart_init_rs232+0x90>
    1698:	64 e0       	ldi	r22, 0x04	; 4
    169a:	82 e0       	ldi	r24, 0x02	; 2
    169c:	fe d8       	rcall	.-3588   	; 0x89a <sysclk_enable_module>
    169e:	a7 c0       	rjmp	.+334    	; 0x17ee <usart_init_rs232+0x1de>
    16a0:	c1 15       	cp	r28, r1
    16a2:	e8 e0       	ldi	r30, 0x08	; 8
    16a4:	de 07       	cpc	r29, r30
    16a6:	21 f4       	brne	.+8      	; 0x16b0 <usart_init_rs232+0xa0>
    16a8:	61 e0       	ldi	r22, 0x01	; 1
    16aa:	83 e0       	ldi	r24, 0x03	; 3
    16ac:	f6 d8       	rcall	.-3604   	; 0x89a <sysclk_enable_module>
    16ae:	9f c0       	rjmp	.+318    	; 0x17ee <usart_init_rs232+0x1de>
    16b0:	c1 15       	cp	r28, r1
    16b2:	f9 e0       	ldi	r31, 0x09	; 9
    16b4:	df 07       	cpc	r29, r31
    16b6:	21 f4       	brne	.+8      	; 0x16c0 <usart_init_rs232+0xb0>
    16b8:	61 e0       	ldi	r22, 0x01	; 1
    16ba:	84 e0       	ldi	r24, 0x04	; 4
    16bc:	ee d8       	rcall	.-3620   	; 0x89a <sysclk_enable_module>
    16be:	97 c0       	rjmp	.+302    	; 0x17ee <usart_init_rs232+0x1de>
    16c0:	c1 15       	cp	r28, r1
    16c2:	8a e0       	ldi	r24, 0x0A	; 10
    16c4:	d8 07       	cpc	r29, r24
    16c6:	21 f4       	brne	.+8      	; 0x16d0 <usart_init_rs232+0xc0>
    16c8:	61 e0       	ldi	r22, 0x01	; 1
    16ca:	85 e0       	ldi	r24, 0x05	; 5
    16cc:	e6 d8       	rcall	.-3636   	; 0x89a <sysclk_enable_module>
    16ce:	8f c0       	rjmp	.+286    	; 0x17ee <usart_init_rs232+0x1de>
    16d0:	c1 15       	cp	r28, r1
    16d2:	eb e0       	ldi	r30, 0x0B	; 11
    16d4:	de 07       	cpc	r29, r30
    16d6:	21 f4       	brne	.+8      	; 0x16e0 <usart_init_rs232+0xd0>
    16d8:	61 e0       	ldi	r22, 0x01	; 1
    16da:	86 e0       	ldi	r24, 0x06	; 6
    16dc:	de d8       	rcall	.-3652   	; 0x89a <sysclk_enable_module>
    16de:	87 c0       	rjmp	.+270    	; 0x17ee <usart_init_rs232+0x1de>
    16e0:	c0 34       	cpi	r28, 0x40	; 64
    16e2:	f8 e0       	ldi	r31, 0x08	; 8
    16e4:	df 07       	cpc	r29, r31
    16e6:	21 f4       	brne	.+8      	; 0x16f0 <usart_init_rs232+0xe0>
    16e8:	62 e0       	ldi	r22, 0x02	; 2
    16ea:	83 e0       	ldi	r24, 0x03	; 3
    16ec:	d6 d8       	rcall	.-3668   	; 0x89a <sysclk_enable_module>
    16ee:	7f c0       	rjmp	.+254    	; 0x17ee <usart_init_rs232+0x1de>
    16f0:	c0 34       	cpi	r28, 0x40	; 64
    16f2:	89 e0       	ldi	r24, 0x09	; 9
    16f4:	d8 07       	cpc	r29, r24
    16f6:	21 f4       	brne	.+8      	; 0x1700 <usart_init_rs232+0xf0>
    16f8:	62 e0       	ldi	r22, 0x02	; 2
    16fa:	84 e0       	ldi	r24, 0x04	; 4
    16fc:	ce d8       	rcall	.-3684   	; 0x89a <sysclk_enable_module>
    16fe:	77 c0       	rjmp	.+238    	; 0x17ee <usart_init_rs232+0x1de>
    1700:	c0 34       	cpi	r28, 0x40	; 64
    1702:	ea e0       	ldi	r30, 0x0A	; 10
    1704:	de 07       	cpc	r29, r30
    1706:	21 f4       	brne	.+8      	; 0x1710 <usart_init_rs232+0x100>
    1708:	62 e0       	ldi	r22, 0x02	; 2
    170a:	85 e0       	ldi	r24, 0x05	; 5
    170c:	c6 d8       	rcall	.-3700   	; 0x89a <sysclk_enable_module>
    170e:	6f c0       	rjmp	.+222    	; 0x17ee <usart_init_rs232+0x1de>
    1710:	c0 39       	cpi	r28, 0x90	; 144
    1712:	f8 e0       	ldi	r31, 0x08	; 8
    1714:	df 07       	cpc	r29, r31
    1716:	21 f4       	brne	.+8      	; 0x1720 <usart_init_rs232+0x110>
    1718:	64 e0       	ldi	r22, 0x04	; 4
    171a:	83 e0       	ldi	r24, 0x03	; 3
    171c:	be d8       	rcall	.-3716   	; 0x89a <sysclk_enable_module>
    171e:	67 c0       	rjmp	.+206    	; 0x17ee <usart_init_rs232+0x1de>
    1720:	c0 39       	cpi	r28, 0x90	; 144
    1722:	89 e0       	ldi	r24, 0x09	; 9
    1724:	d8 07       	cpc	r29, r24
    1726:	21 f4       	brne	.+8      	; 0x1730 <usart_init_rs232+0x120>
    1728:	64 e0       	ldi	r22, 0x04	; 4
    172a:	84 e0       	ldi	r24, 0x04	; 4
    172c:	b6 d8       	rcall	.-3732   	; 0x89a <sysclk_enable_module>
    172e:	5f c0       	rjmp	.+190    	; 0x17ee <usart_init_rs232+0x1de>
    1730:	c0 39       	cpi	r28, 0x90	; 144
    1732:	ea e0       	ldi	r30, 0x0A	; 10
    1734:	de 07       	cpc	r29, r30
    1736:	21 f4       	brne	.+8      	; 0x1740 <usart_init_rs232+0x130>
    1738:	64 e0       	ldi	r22, 0x04	; 4
    173a:	85 e0       	ldi	r24, 0x05	; 5
    173c:	ae d8       	rcall	.-3748   	; 0x89a <sysclk_enable_module>
    173e:	57 c0       	rjmp	.+174    	; 0x17ee <usart_init_rs232+0x1de>
    1740:	c0 39       	cpi	r28, 0x90	; 144
    1742:	fb e0       	ldi	r31, 0x0B	; 11
    1744:	df 07       	cpc	r29, r31
    1746:	21 f4       	brne	.+8      	; 0x1750 <usart_init_rs232+0x140>
    1748:	64 e0       	ldi	r22, 0x04	; 4
    174a:	86 e0       	ldi	r24, 0x06	; 6
    174c:	a6 d8       	rcall	.-3764   	; 0x89a <sysclk_enable_module>
    174e:	4f c0       	rjmp	.+158    	; 0x17ee <usart_init_rs232+0x1de>
    1750:	c0 3c       	cpi	r28, 0xC0	; 192
    1752:	88 e0       	ldi	r24, 0x08	; 8
    1754:	d8 07       	cpc	r29, r24
    1756:	21 f4       	brne	.+8      	; 0x1760 <usart_init_rs232+0x150>
    1758:	68 e0       	ldi	r22, 0x08	; 8
    175a:	83 e0       	ldi	r24, 0x03	; 3
    175c:	9e d8       	rcall	.-3780   	; 0x89a <sysclk_enable_module>
    175e:	47 c0       	rjmp	.+142    	; 0x17ee <usart_init_rs232+0x1de>
    1760:	c0 3c       	cpi	r28, 0xC0	; 192
    1762:	e9 e0       	ldi	r30, 0x09	; 9
    1764:	de 07       	cpc	r29, r30
    1766:	21 f4       	brne	.+8      	; 0x1770 <usart_init_rs232+0x160>
    1768:	68 e0       	ldi	r22, 0x08	; 8
    176a:	84 e0       	ldi	r24, 0x04	; 4
    176c:	96 d8       	rcall	.-3796   	; 0x89a <sysclk_enable_module>
    176e:	3f c0       	rjmp	.+126    	; 0x17ee <usart_init_rs232+0x1de>
    1770:	c0 3a       	cpi	r28, 0xA0	; 160
    1772:	f8 e0       	ldi	r31, 0x08	; 8
    1774:	df 07       	cpc	r29, r31
    1776:	21 f4       	brne	.+8      	; 0x1780 <usart_init_rs232+0x170>
    1778:	60 e1       	ldi	r22, 0x10	; 16
    177a:	83 e0       	ldi	r24, 0x03	; 3
    177c:	8e d8       	rcall	.-3812   	; 0x89a <sysclk_enable_module>
    177e:	37 c0       	rjmp	.+110    	; 0x17ee <usart_init_rs232+0x1de>
    1780:	c0 3a       	cpi	r28, 0xA0	; 160
    1782:	89 e0       	ldi	r24, 0x09	; 9
    1784:	d8 07       	cpc	r29, r24
    1786:	21 f4       	brne	.+8      	; 0x1790 <usart_init_rs232+0x180>
    1788:	60 e1       	ldi	r22, 0x10	; 16
    178a:	84 e0       	ldi	r24, 0x04	; 4
    178c:	86 d8       	rcall	.-3828   	; 0x89a <sysclk_enable_module>
    178e:	2f c0       	rjmp	.+94     	; 0x17ee <usart_init_rs232+0x1de>
    1790:	c0 3a       	cpi	r28, 0xA0	; 160
    1792:	ea e0       	ldi	r30, 0x0A	; 10
    1794:	de 07       	cpc	r29, r30
    1796:	21 f4       	brne	.+8      	; 0x17a0 <usart_init_rs232+0x190>
    1798:	60 e1       	ldi	r22, 0x10	; 16
    179a:	85 e0       	ldi	r24, 0x05	; 5
    179c:	7e d8       	rcall	.-3844   	; 0x89a <sysclk_enable_module>
    179e:	27 c0       	rjmp	.+78     	; 0x17ee <usart_init_rs232+0x1de>
    17a0:	c0 3a       	cpi	r28, 0xA0	; 160
    17a2:	fb e0       	ldi	r31, 0x0B	; 11
    17a4:	df 07       	cpc	r29, r31
    17a6:	21 f4       	brne	.+8      	; 0x17b0 <usart_init_rs232+0x1a0>
    17a8:	60 e1       	ldi	r22, 0x10	; 16
    17aa:	86 e0       	ldi	r24, 0x06	; 6
    17ac:	76 d8       	rcall	.-3860   	; 0x89a <sysclk_enable_module>
    17ae:	1f c0       	rjmp	.+62     	; 0x17ee <usart_init_rs232+0x1de>
    17b0:	c0 3b       	cpi	r28, 0xB0	; 176
    17b2:	88 e0       	ldi	r24, 0x08	; 8
    17b4:	d8 07       	cpc	r29, r24
    17b6:	21 f4       	brne	.+8      	; 0x17c0 <usart_init_rs232+0x1b0>
    17b8:	60 e2       	ldi	r22, 0x20	; 32
    17ba:	83 e0       	ldi	r24, 0x03	; 3
    17bc:	6e d8       	rcall	.-3876   	; 0x89a <sysclk_enable_module>
    17be:	17 c0       	rjmp	.+46     	; 0x17ee <usart_init_rs232+0x1de>
    17c0:	c0 3b       	cpi	r28, 0xB0	; 176
    17c2:	e9 e0       	ldi	r30, 0x09	; 9
    17c4:	de 07       	cpc	r29, r30
    17c6:	21 f4       	brne	.+8      	; 0x17d0 <usart_init_rs232+0x1c0>
    17c8:	60 e2       	ldi	r22, 0x20	; 32
    17ca:	84 e0       	ldi	r24, 0x04	; 4
    17cc:	66 d8       	rcall	.-3892   	; 0x89a <sysclk_enable_module>
    17ce:	0f c0       	rjmp	.+30     	; 0x17ee <usart_init_rs232+0x1de>
    17d0:	c0 38       	cpi	r28, 0x80	; 128
    17d2:	f4 e0       	ldi	r31, 0x04	; 4
    17d4:	df 07       	cpc	r29, r31
    17d6:	21 f4       	brne	.+8      	; 0x17e0 <usart_init_rs232+0x1d0>
    17d8:	60 e4       	ldi	r22, 0x40	; 64
    17da:	83 e0       	ldi	r24, 0x03	; 3
    17dc:	5e d8       	rcall	.-3908   	; 0x89a <sysclk_enable_module>
    17de:	07 c0       	rjmp	.+14     	; 0x17ee <usart_init_rs232+0x1de>
    17e0:	c0 3a       	cpi	r28, 0xA0	; 160
    17e2:	84 e0       	ldi	r24, 0x04	; 4
    17e4:	d8 07       	cpc	r29, r24
    17e6:	19 f4       	brne	.+6      	; 0x17ee <usart_init_rs232+0x1de>
    17e8:	60 e4       	ldi	r22, 0x40	; 64
    17ea:	85 e0       	ldi	r24, 0x05	; 5
    17ec:	56 d8       	rcall	.-3924   	; 0x89a <sysclk_enable_module>
    17ee:	8d 81       	ldd	r24, Y+5	; 0x05
    17f0:	8f 73       	andi	r24, 0x3F	; 63
    17f2:	8d 83       	std	Y+5, r24	; 0x05
    17f4:	f8 01       	movw	r30, r16
    17f6:	95 81       	ldd	r25, Z+5	; 0x05
    17f8:	84 81       	ldd	r24, Z+4	; 0x04
    17fa:	89 2b       	or	r24, r25
    17fc:	96 81       	ldd	r25, Z+6	; 0x06
    17fe:	91 11       	cpse	r25, r1
    1800:	98 e0       	ldi	r25, 0x08	; 8
    1802:	89 2b       	or	r24, r25
    1804:	8d 83       	std	Y+5, r24	; 0x05
    1806:	f8 01       	movw	r30, r16
    1808:	40 81       	ld	r20, Z
    180a:	51 81       	ldd	r21, Z+1	; 0x01
    180c:	62 81       	ldd	r22, Z+2	; 0x02
    180e:	73 81       	ldd	r23, Z+3	; 0x03
    1810:	00 e8       	ldi	r16, 0x80	; 128
    1812:	14 e8       	ldi	r17, 0x84	; 132
    1814:	2e e1       	ldi	r18, 0x1E	; 30
    1816:	30 e0       	ldi	r19, 0x00	; 0
    1818:	ce 01       	movw	r24, r28
    181a:	e7 dd       	rcall	.-1074   	; 0x13ea <usart_set_baudrate>
    181c:	9c 81       	ldd	r25, Y+4	; 0x04
    181e:	98 60       	ori	r25, 0x08	; 8
    1820:	9c 83       	std	Y+4, r25	; 0x04
    1822:	9c 81       	ldd	r25, Y+4	; 0x04
    1824:	90 61       	ori	r25, 0x10	; 16
    1826:	9c 83       	std	Y+4, r25	; 0x04
    1828:	df 91       	pop	r29
    182a:	cf 91       	pop	r28
    182c:	1f 91       	pop	r17
    182e:	0f 91       	pop	r16
    1830:	08 95       	ret

00001832 <usart_spi_set_baudrate>:
    1832:	cf 92       	push	r12
    1834:	df 92       	push	r13
    1836:	ef 92       	push	r14
    1838:	ff 92       	push	r15
    183a:	0f 93       	push	r16
    183c:	1f 93       	push	r17
    183e:	cf 93       	push	r28
    1840:	df 93       	push	r29
    1842:	ec 01       	movw	r28, r24
    1844:	d9 01       	movw	r26, r18
    1846:	c8 01       	movw	r24, r16
    1848:	b6 95       	lsr	r27
    184a:	a7 95       	ror	r26
    184c:	97 95       	ror	r25
    184e:	87 95       	ror	r24
    1850:	48 17       	cp	r20, r24
    1852:	59 07       	cpc	r21, r25
    1854:	6a 07       	cpc	r22, r26
    1856:	7b 07       	cpc	r23, r27
    1858:	78 f4       	brcc	.+30     	; 0x1878 <usart_spi_set_baudrate+0x46>
    185a:	6a 01       	movw	r12, r20
    185c:	7b 01       	movw	r14, r22
    185e:	cc 0c       	add	r12, r12
    1860:	dd 1c       	adc	r13, r13
    1862:	ee 1c       	adc	r14, r14
    1864:	ff 1c       	adc	r15, r15
    1866:	c9 01       	movw	r24, r18
    1868:	b8 01       	movw	r22, r16
    186a:	a7 01       	movw	r20, r14
    186c:	96 01       	movw	r18, r12
    186e:	0e 94 63 1c 	call	0x38c6	; 0x38c6 <__udivmodsi4>
    1872:	21 50       	subi	r18, 0x01	; 1
    1874:	31 09       	sbc	r19, r1
    1876:	02 c0       	rjmp	.+4      	; 0x187c <usart_spi_set_baudrate+0x4a>
    1878:	20 e0       	ldi	r18, 0x00	; 0
    187a:	30 e0       	ldi	r19, 0x00	; 0
    187c:	83 2f       	mov	r24, r19
    187e:	8f 70       	andi	r24, 0x0F	; 15
    1880:	8f 83       	std	Y+7, r24	; 0x07
    1882:	2e 83       	std	Y+6, r18	; 0x06
    1884:	df 91       	pop	r29
    1886:	cf 91       	pop	r28
    1888:	1f 91       	pop	r17
    188a:	0f 91       	pop	r16
    188c:	ff 90       	pop	r15
    188e:	ef 90       	pop	r14
    1890:	df 90       	pop	r13
    1892:	cf 90       	pop	r12
    1894:	08 95       	ret

00001896 <usart_init_spi>:
    1896:	ef 92       	push	r14
    1898:	ff 92       	push	r15
    189a:	0f 93       	push	r16
    189c:	1f 93       	push	r17
    189e:	cf 93       	push	r28
    18a0:	df 93       	push	r29
    18a2:	ec 01       	movw	r28, r24
    18a4:	7b 01       	movw	r14, r22
    18a6:	00 97       	sbiw	r24, 0x00	; 0
    18a8:	09 f4       	brne	.+2      	; 0x18ac <usart_init_spi+0x16>
    18aa:	98 c1       	rjmp	.+816    	; 0x1bdc <usart_init_spi+0x346>
    18ac:	80 3c       	cpi	r24, 0xC0	; 192
    18ae:	91 05       	cpc	r25, r1
    18b0:	29 f4       	brne	.+10     	; 0x18bc <usart_init_spi+0x26>
    18b2:	60 e1       	ldi	r22, 0x10	; 16
    18b4:	80 e0       	ldi	r24, 0x00	; 0
    18b6:	0e 94 4d 04 	call	0x89a	; 0x89a <sysclk_enable_module>
    18ba:	90 c1       	rjmp	.+800    	; 0x1bdc <usart_init_spi+0x346>
    18bc:	80 38       	cpi	r24, 0x80	; 128
    18be:	91 40       	sbci	r25, 0x01	; 1
    18c0:	29 f4       	brne	.+10     	; 0x18cc <usart_init_spi+0x36>
    18c2:	62 e0       	ldi	r22, 0x02	; 2
    18c4:	80 e0       	ldi	r24, 0x00	; 0
    18c6:	0e 94 4d 04 	call	0x89a	; 0x89a <sysclk_enable_module>
    18ca:	88 c1       	rjmp	.+784    	; 0x1bdc <usart_init_spi+0x346>
    18cc:	c1 15       	cp	r28, r1
    18ce:	81 e0       	ldi	r24, 0x01	; 1
    18d0:	d8 07       	cpc	r29, r24
    18d2:	29 f4       	brne	.+10     	; 0x18de <usart_init_spi+0x48>
    18d4:	61 e0       	ldi	r22, 0x01	; 1
    18d6:	80 e0       	ldi	r24, 0x00	; 0
    18d8:	0e 94 4d 04 	call	0x89a	; 0x89a <sysclk_enable_module>
    18dc:	7f c1       	rjmp	.+766    	; 0x1bdc <usart_init_spi+0x346>
    18de:	c0 38       	cpi	r28, 0x80	; 128
    18e0:	e3 e0       	ldi	r30, 0x03	; 3
    18e2:	de 07       	cpc	r29, r30
    18e4:	29 f4       	brne	.+10     	; 0x18f0 <usart_init_spi+0x5a>
    18e6:	61 e0       	ldi	r22, 0x01	; 1
    18e8:	81 e0       	ldi	r24, 0x01	; 1
    18ea:	0e 94 4d 04 	call	0x89a	; 0x89a <sysclk_enable_module>
    18ee:	76 c1       	rjmp	.+748    	; 0x1bdc <usart_init_spi+0x346>
    18f0:	c0 39       	cpi	r28, 0x90	; 144
    18f2:	f3 e0       	ldi	r31, 0x03	; 3
    18f4:	df 07       	cpc	r29, r31
    18f6:	29 f4       	brne	.+10     	; 0x1902 <usart_init_spi+0x6c>
    18f8:	61 e0       	ldi	r22, 0x01	; 1
    18fa:	82 e0       	ldi	r24, 0x02	; 2
    18fc:	0e 94 4d 04 	call	0x89a	; 0x89a <sysclk_enable_module>
    1900:	6d c1       	rjmp	.+730    	; 0x1bdc <usart_init_spi+0x346>
    1902:	c1 15       	cp	r28, r1
    1904:	32 e0       	ldi	r19, 0x02	; 2
    1906:	d3 07       	cpc	r29, r19
    1908:	29 f4       	brne	.+10     	; 0x1914 <usart_init_spi+0x7e>
    190a:	62 e0       	ldi	r22, 0x02	; 2
    190c:	81 e0       	ldi	r24, 0x01	; 1
    190e:	0e 94 4d 04 	call	0x89a	; 0x89a <sysclk_enable_module>
    1912:	64 c1       	rjmp	.+712    	; 0x1bdc <usart_init_spi+0x346>
    1914:	c0 34       	cpi	r28, 0x40	; 64
    1916:	82 e0       	ldi	r24, 0x02	; 2
    1918:	d8 07       	cpc	r29, r24
    191a:	29 f4       	brne	.+10     	; 0x1926 <usart_init_spi+0x90>
    191c:	62 e0       	ldi	r22, 0x02	; 2
    191e:	82 e0       	ldi	r24, 0x02	; 2
    1920:	0e 94 4d 04 	call	0x89a	; 0x89a <sysclk_enable_module>
    1924:	5b c1       	rjmp	.+694    	; 0x1bdc <usart_init_spi+0x346>
    1926:	c0 32       	cpi	r28, 0x20	; 32
    1928:	e3 e0       	ldi	r30, 0x03	; 3
    192a:	de 07       	cpc	r29, r30
    192c:	29 f4       	brne	.+10     	; 0x1938 <usart_init_spi+0xa2>
    192e:	64 e0       	ldi	r22, 0x04	; 4
    1930:	82 e0       	ldi	r24, 0x02	; 2
    1932:	0e 94 4d 04 	call	0x89a	; 0x89a <sysclk_enable_module>
    1936:	52 c1       	rjmp	.+676    	; 0x1bdc <usart_init_spi+0x346>
    1938:	c1 15       	cp	r28, r1
    193a:	f8 e0       	ldi	r31, 0x08	; 8
    193c:	df 07       	cpc	r29, r31
    193e:	29 f4       	brne	.+10     	; 0x194a <usart_init_spi+0xb4>
    1940:	61 e0       	ldi	r22, 0x01	; 1
    1942:	83 e0       	ldi	r24, 0x03	; 3
    1944:	0e 94 4d 04 	call	0x89a	; 0x89a <sysclk_enable_module>
    1948:	49 c1       	rjmp	.+658    	; 0x1bdc <usart_init_spi+0x346>
    194a:	c1 15       	cp	r28, r1
    194c:	39 e0       	ldi	r19, 0x09	; 9
    194e:	d3 07       	cpc	r29, r19
    1950:	29 f4       	brne	.+10     	; 0x195c <usart_init_spi+0xc6>
    1952:	61 e0       	ldi	r22, 0x01	; 1
    1954:	84 e0       	ldi	r24, 0x04	; 4
    1956:	0e 94 4d 04 	call	0x89a	; 0x89a <sysclk_enable_module>
    195a:	40 c1       	rjmp	.+640    	; 0x1bdc <usart_init_spi+0x346>
    195c:	c1 15       	cp	r28, r1
    195e:	8a e0       	ldi	r24, 0x0A	; 10
    1960:	d8 07       	cpc	r29, r24
    1962:	29 f4       	brne	.+10     	; 0x196e <usart_init_spi+0xd8>
    1964:	61 e0       	ldi	r22, 0x01	; 1
    1966:	85 e0       	ldi	r24, 0x05	; 5
    1968:	0e 94 4d 04 	call	0x89a	; 0x89a <sysclk_enable_module>
    196c:	37 c1       	rjmp	.+622    	; 0x1bdc <usart_init_spi+0x346>
    196e:	c1 15       	cp	r28, r1
    1970:	eb e0       	ldi	r30, 0x0B	; 11
    1972:	de 07       	cpc	r29, r30
    1974:	29 f4       	brne	.+10     	; 0x1980 <usart_init_spi+0xea>
    1976:	61 e0       	ldi	r22, 0x01	; 1
    1978:	86 e0       	ldi	r24, 0x06	; 6
    197a:	0e 94 4d 04 	call	0x89a	; 0x89a <sysclk_enable_module>
    197e:	2e c1       	rjmp	.+604    	; 0x1bdc <usart_init_spi+0x346>
    1980:	c0 34       	cpi	r28, 0x40	; 64
    1982:	f8 e0       	ldi	r31, 0x08	; 8
    1984:	df 07       	cpc	r29, r31
    1986:	29 f4       	brne	.+10     	; 0x1992 <usart_init_spi+0xfc>
    1988:	62 e0       	ldi	r22, 0x02	; 2
    198a:	83 e0       	ldi	r24, 0x03	; 3
    198c:	0e 94 4d 04 	call	0x89a	; 0x89a <sysclk_enable_module>
    1990:	25 c1       	rjmp	.+586    	; 0x1bdc <usart_init_spi+0x346>
    1992:	c0 34       	cpi	r28, 0x40	; 64
    1994:	39 e0       	ldi	r19, 0x09	; 9
    1996:	d3 07       	cpc	r29, r19
    1998:	29 f4       	brne	.+10     	; 0x19a4 <usart_init_spi+0x10e>
    199a:	62 e0       	ldi	r22, 0x02	; 2
    199c:	84 e0       	ldi	r24, 0x04	; 4
    199e:	0e 94 4d 04 	call	0x89a	; 0x89a <sysclk_enable_module>
    19a2:	1c c1       	rjmp	.+568    	; 0x1bdc <usart_init_spi+0x346>
    19a4:	c0 34       	cpi	r28, 0x40	; 64
    19a6:	8a e0       	ldi	r24, 0x0A	; 10
    19a8:	d8 07       	cpc	r29, r24
    19aa:	29 f4       	brne	.+10     	; 0x19b6 <usart_init_spi+0x120>
    19ac:	62 e0       	ldi	r22, 0x02	; 2
    19ae:	85 e0       	ldi	r24, 0x05	; 5
    19b0:	0e 94 4d 04 	call	0x89a	; 0x89a <sysclk_enable_module>
    19b4:	13 c1       	rjmp	.+550    	; 0x1bdc <usart_init_spi+0x346>
    19b6:	c0 39       	cpi	r28, 0x90	; 144
    19b8:	e8 e0       	ldi	r30, 0x08	; 8
    19ba:	de 07       	cpc	r29, r30
    19bc:	29 f4       	brne	.+10     	; 0x19c8 <usart_init_spi+0x132>
    19be:	64 e0       	ldi	r22, 0x04	; 4
    19c0:	83 e0       	ldi	r24, 0x03	; 3
    19c2:	0e 94 4d 04 	call	0x89a	; 0x89a <sysclk_enable_module>
    19c6:	0a c1       	rjmp	.+532    	; 0x1bdc <usart_init_spi+0x346>
    19c8:	c0 39       	cpi	r28, 0x90	; 144
    19ca:	f9 e0       	ldi	r31, 0x09	; 9
    19cc:	df 07       	cpc	r29, r31
    19ce:	29 f4       	brne	.+10     	; 0x19da <usart_init_spi+0x144>
    19d0:	64 e0       	ldi	r22, 0x04	; 4
    19d2:	84 e0       	ldi	r24, 0x04	; 4
    19d4:	0e 94 4d 04 	call	0x89a	; 0x89a <sysclk_enable_module>
    19d8:	01 c1       	rjmp	.+514    	; 0x1bdc <usart_init_spi+0x346>
    19da:	c0 39       	cpi	r28, 0x90	; 144
    19dc:	3a e0       	ldi	r19, 0x0A	; 10
    19de:	d3 07       	cpc	r29, r19
    19e0:	29 f4       	brne	.+10     	; 0x19ec <usart_init_spi+0x156>
    19e2:	64 e0       	ldi	r22, 0x04	; 4
    19e4:	85 e0       	ldi	r24, 0x05	; 5
    19e6:	0e 94 4d 04 	call	0x89a	; 0x89a <sysclk_enable_module>
    19ea:	f8 c0       	rjmp	.+496    	; 0x1bdc <usart_init_spi+0x346>
    19ec:	c0 39       	cpi	r28, 0x90	; 144
    19ee:	8b e0       	ldi	r24, 0x0B	; 11
    19f0:	d8 07       	cpc	r29, r24
    19f2:	29 f4       	brne	.+10     	; 0x19fe <usart_init_spi+0x168>
    19f4:	64 e0       	ldi	r22, 0x04	; 4
    19f6:	86 e0       	ldi	r24, 0x06	; 6
    19f8:	0e 94 4d 04 	call	0x89a	; 0x89a <sysclk_enable_module>
    19fc:	ef c0       	rjmp	.+478    	; 0x1bdc <usart_init_spi+0x346>
    19fe:	c0 3c       	cpi	r28, 0xC0	; 192
    1a00:	e8 e0       	ldi	r30, 0x08	; 8
    1a02:	de 07       	cpc	r29, r30
    1a04:	29 f4       	brne	.+10     	; 0x1a10 <usart_init_spi+0x17a>
    1a06:	68 e0       	ldi	r22, 0x08	; 8
    1a08:	83 e0       	ldi	r24, 0x03	; 3
    1a0a:	0e 94 4d 04 	call	0x89a	; 0x89a <sysclk_enable_module>
    1a0e:	e6 c0       	rjmp	.+460    	; 0x1bdc <usart_init_spi+0x346>
    1a10:	c0 3c       	cpi	r28, 0xC0	; 192
    1a12:	f9 e0       	ldi	r31, 0x09	; 9
    1a14:	df 07       	cpc	r29, r31
    1a16:	29 f4       	brne	.+10     	; 0x1a22 <usart_init_spi+0x18c>
    1a18:	68 e0       	ldi	r22, 0x08	; 8
    1a1a:	84 e0       	ldi	r24, 0x04	; 4
    1a1c:	0e 94 4d 04 	call	0x89a	; 0x89a <sysclk_enable_module>
    1a20:	dd c0       	rjmp	.+442    	; 0x1bdc <usart_init_spi+0x346>
    1a22:	c0 3a       	cpi	r28, 0xA0	; 160
    1a24:	38 e0       	ldi	r19, 0x08	; 8
    1a26:	d3 07       	cpc	r29, r19
    1a28:	69 f4       	brne	.+26     	; 0x1a44 <usart_init_spi+0x1ae>
    1a2a:	60 e1       	ldi	r22, 0x10	; 16
    1a2c:	83 e0       	ldi	r24, 0x03	; 3
    1a2e:	0e 94 4d 04 	call	0x89a	; 0x89a <sysclk_enable_module>
    1a32:	e0 ea       	ldi	r30, 0xA0	; 160
    1a34:	f8 e0       	ldi	r31, 0x08	; 8
    1a36:	84 81       	ldd	r24, Z+4	; 0x04
    1a38:	8f 7e       	andi	r24, 0xEF	; 239
    1a3a:	84 83       	std	Z+4, r24	; 0x04
    1a3c:	f7 01       	movw	r30, r14
    1a3e:	24 81       	ldd	r18, Z+4	; 0x04
    1a40:	22 50       	subi	r18, 0x02	; 2
    1a42:	4a c0       	rjmp	.+148    	; 0x1ad8 <usart_init_spi+0x242>
    1a44:	c0 3a       	cpi	r28, 0xA0	; 160
    1a46:	f9 e0       	ldi	r31, 0x09	; 9
    1a48:	df 07       	cpc	r29, r31
    1a4a:	29 f4       	brne	.+10     	; 0x1a56 <usart_init_spi+0x1c0>
    1a4c:	60 e1       	ldi	r22, 0x10	; 16
    1a4e:	84 e0       	ldi	r24, 0x04	; 4
    1a50:	0e 94 4d 04 	call	0x89a	; 0x89a <sysclk_enable_module>
    1a54:	c3 c0       	rjmp	.+390    	; 0x1bdc <usart_init_spi+0x346>
    1a56:	c0 3a       	cpi	r28, 0xA0	; 160
    1a58:	3a e0       	ldi	r19, 0x0A	; 10
    1a5a:	d3 07       	cpc	r29, r19
    1a5c:	29 f4       	brne	.+10     	; 0x1a68 <usart_init_spi+0x1d2>
    1a5e:	60 e1       	ldi	r22, 0x10	; 16
    1a60:	85 e0       	ldi	r24, 0x05	; 5
    1a62:	0e 94 4d 04 	call	0x89a	; 0x89a <sysclk_enable_module>
    1a66:	ba c0       	rjmp	.+372    	; 0x1bdc <usart_init_spi+0x346>
    1a68:	c0 3a       	cpi	r28, 0xA0	; 160
    1a6a:	8b e0       	ldi	r24, 0x0B	; 11
    1a6c:	d8 07       	cpc	r29, r24
    1a6e:	29 f4       	brne	.+10     	; 0x1a7a <usart_init_spi+0x1e4>
    1a70:	60 e1       	ldi	r22, 0x10	; 16
    1a72:	86 e0       	ldi	r24, 0x06	; 6
    1a74:	0e 94 4d 04 	call	0x89a	; 0x89a <sysclk_enable_module>
    1a78:	b1 c0       	rjmp	.+354    	; 0x1bdc <usart_init_spi+0x346>
    1a7a:	c0 3b       	cpi	r28, 0xB0	; 176
    1a7c:	e8 e0       	ldi	r30, 0x08	; 8
    1a7e:	de 07       	cpc	r29, r30
    1a80:	29 f4       	brne	.+10     	; 0x1a8c <usart_init_spi+0x1f6>
    1a82:	60 e2       	ldi	r22, 0x20	; 32
    1a84:	83 e0       	ldi	r24, 0x03	; 3
    1a86:	0e 94 4d 04 	call	0x89a	; 0x89a <sysclk_enable_module>
    1a8a:	a8 c0       	rjmp	.+336    	; 0x1bdc <usart_init_spi+0x346>
    1a8c:	c0 3b       	cpi	r28, 0xB0	; 176
    1a8e:	f9 e0       	ldi	r31, 0x09	; 9
    1a90:	df 07       	cpc	r29, r31
    1a92:	29 f4       	brne	.+10     	; 0x1a9e <usart_init_spi+0x208>
    1a94:	60 e2       	ldi	r22, 0x20	; 32
    1a96:	84 e0       	ldi	r24, 0x04	; 4
    1a98:	0e 94 4d 04 	call	0x89a	; 0x89a <sysclk_enable_module>
    1a9c:	9f c0       	rjmp	.+318    	; 0x1bdc <usart_init_spi+0x346>
    1a9e:	c0 38       	cpi	r28, 0x80	; 128
    1aa0:	34 e0       	ldi	r19, 0x04	; 4
    1aa2:	d3 07       	cpc	r29, r19
    1aa4:	29 f4       	brne	.+10     	; 0x1ab0 <usart_init_spi+0x21a>
    1aa6:	60 e4       	ldi	r22, 0x40	; 64
    1aa8:	83 e0       	ldi	r24, 0x03	; 3
    1aaa:	0e 94 4d 04 	call	0x89a	; 0x89a <sysclk_enable_module>
    1aae:	96 c0       	rjmp	.+300    	; 0x1bdc <usart_init_spi+0x346>
    1ab0:	c0 3a       	cpi	r28, 0xA0	; 160
    1ab2:	84 e0       	ldi	r24, 0x04	; 4
    1ab4:	d8 07       	cpc	r29, r24
    1ab6:	29 f4       	brne	.+10     	; 0x1ac2 <usart_init_spi+0x22c>
    1ab8:	60 e4       	ldi	r22, 0x40	; 64
    1aba:	85 e0       	ldi	r24, 0x05	; 5
    1abc:	0e 94 4d 04 	call	0x89a	; 0x89a <sysclk_enable_module>
    1ac0:	8d c0       	rjmp	.+282    	; 0x1bdc <usart_init_spi+0x346>
    1ac2:	8c 81       	ldd	r24, Y+4	; 0x04
    1ac4:	8f 7e       	andi	r24, 0xEF	; 239
    1ac6:	8c 83       	std	Y+4, r24	; 0x04
    1ac8:	fb 01       	movw	r30, r22
    1aca:	24 81       	ldd	r18, Z+4	; 0x04
    1acc:	22 50       	subi	r18, 0x02	; 2
    1ace:	ce 01       	movw	r24, r28
    1ad0:	c0 3a       	cpi	r28, 0xA0	; 160
    1ad2:	f8 e0       	ldi	r31, 0x08	; 8
    1ad4:	df 07       	cpc	r29, r31
    1ad6:	31 f4       	brne	.+12     	; 0x1ae4 <usart_init_spi+0x24e>
    1ad8:	80 91 4e 06 	lds	r24, 0x064E	; 0x80064e <__TEXT_REGION_LENGTH__+0x70064e>
    1adc:	84 fd       	sbrc	r24, 4
    1ade:	86 c0       	rjmp	.+268    	; 0x1bec <usart_init_spi+0x356>
    1ae0:	11 e1       	ldi	r17, 0x11	; 17
    1ae2:	85 c0       	rjmp	.+266    	; 0x1bee <usart_init_spi+0x358>
    1ae4:	80 3b       	cpi	r24, 0xB0	; 176
    1ae6:	38 e0       	ldi	r19, 0x08	; 8
    1ae8:	93 07       	cpc	r25, r19
    1aea:	79 f0       	breq	.+30     	; 0x1b0a <usart_init_spi+0x274>
    1aec:	80 3a       	cpi	r24, 0xA0	; 160
    1aee:	e9 e0       	ldi	r30, 0x09	; 9
    1af0:	9e 07       	cpc	r25, r30
    1af2:	31 f4       	brne	.+12     	; 0x1b00 <usart_init_spi+0x26a>
    1af4:	30 91 6e 06 	lds	r19, 0x066E	; 0x80066e <__TEXT_REGION_LENGTH__+0x70066e>
    1af8:	34 fd       	sbrc	r19, 4
    1afa:	7c c0       	rjmp	.+248    	; 0x1bf4 <usart_init_spi+0x35e>
    1afc:	19 e1       	ldi	r17, 0x19	; 25
    1afe:	10 c0       	rjmp	.+32     	; 0x1b20 <usart_init_spi+0x28a>
    1b00:	80 3b       	cpi	r24, 0xB0	; 176
    1b02:	f9 e0       	ldi	r31, 0x09	; 9
    1b04:	9f 07       	cpc	r25, r31
    1b06:	a9 f0       	breq	.+42     	; 0x1b32 <usart_init_spi+0x29c>
    1b08:	01 c0       	rjmp	.+2      	; 0x1b0c <usart_init_spi+0x276>
    1b0a:	15 e1       	ldi	r17, 0x15	; 21
    1b0c:	80 3a       	cpi	r24, 0xA0	; 160
    1b0e:	3a e0       	ldi	r19, 0x0A	; 10
    1b10:	93 07       	cpc	r25, r19
    1b12:	31 f4       	brne	.+12     	; 0x1b20 <usart_init_spi+0x28a>
    1b14:	80 91 8e 06 	lds	r24, 0x068E	; 0x80068e <__TEXT_REGION_LENGTH__+0x70068e>
    1b18:	84 fd       	sbrc	r24, 4
    1b1a:	6e c0       	rjmp	.+220    	; 0x1bf8 <usart_init_spi+0x362>
    1b1c:	11 e2       	ldi	r17, 0x21	; 33
    1b1e:	0c c0       	rjmp	.+24     	; 0x1b38 <usart_init_spi+0x2a2>
    1b20:	80 3a       	cpi	r24, 0xA0	; 160
    1b22:	9b 40       	sbci	r25, 0x0B	; 11
    1b24:	49 f4       	brne	.+18     	; 0x1b38 <usart_init_spi+0x2a2>
    1b26:	80 91 ae 06 	lds	r24, 0x06AE	; 0x8006ae <__TEXT_REGION_LENGTH__+0x7006ae>
    1b2a:	84 fd       	sbrc	r24, 4
    1b2c:	04 c0       	rjmp	.+8      	; 0x1b36 <usart_init_spi+0x2a0>
    1b2e:	19 e2       	ldi	r17, 0x29	; 41
    1b30:	03 c0       	rjmp	.+6      	; 0x1b38 <usart_init_spi+0x2a2>
    1b32:	1d e1       	ldi	r17, 0x1D	; 29
    1b34:	01 c0       	rjmp	.+2      	; 0x1b38 <usart_init_spi+0x2a2>
    1b36:	1d e2       	ldi	r17, 0x2D	; 45
    1b38:	e1 2f       	mov	r30, r17
    1b3a:	e6 95       	lsr	r30
    1b3c:	e6 95       	lsr	r30
    1b3e:	e6 95       	lsr	r30
    1b40:	30 e2       	ldi	r19, 0x20	; 32
    1b42:	e3 9f       	mul	r30, r19
    1b44:	f0 01       	movw	r30, r0
    1b46:	11 24       	eor	r1, r1
    1b48:	fa 5f       	subi	r31, 0xFA	; 250
    1b4a:	17 70       	andi	r17, 0x07	; 7
    1b4c:	81 e0       	ldi	r24, 0x01	; 1
    1b4e:	90 e0       	ldi	r25, 0x00	; 0
    1b50:	01 2e       	mov	r0, r17
    1b52:	02 c0       	rjmp	.+4      	; 0x1b58 <usart_init_spi+0x2c2>
    1b54:	88 0f       	add	r24, r24
    1b56:	99 1f       	adc	r25, r25
    1b58:	0a 94       	dec	r0
    1b5a:	e2 f7       	brpl	.-8      	; 0x1b54 <usart_init_spi+0x2be>
    1b5c:	81 83       	std	Z+1, r24	; 0x01
    1b5e:	22 30       	cpi	r18, 0x02	; 2
    1b60:	10 f0       	brcs	.+4      	; 0x1b66 <usart_init_spi+0x2d0>
    1b62:	40 e0       	ldi	r20, 0x00	; 0
    1b64:	01 c0       	rjmp	.+2      	; 0x1b68 <usart_init_spi+0x2d2>
    1b66:	40 e4       	ldi	r20, 0x40	; 64
    1b68:	df 01       	movw	r26, r30
    1b6a:	50 96       	adiw	r26, 0x10	; 16
    1b6c:	a1 0f       	add	r26, r17
    1b6e:	b1 1d       	adc	r27, r1
    1b70:	3f b7       	in	r19, 0x3f	; 63
    1b72:	f8 94       	cli
    1b74:	2c 91       	ld	r18, X
    1b76:	27 70       	andi	r18, 0x07	; 7
    1b78:	2c 93       	st	X, r18
    1b7a:	9c 91       	ld	r25, X
    1b7c:	94 2b       	or	r25, r20
    1b7e:	9c 93       	st	X, r25
    1b80:	3f bf       	out	0x3f, r19	; 63
    1b82:	85 83       	std	Z+5, r24	; 0x05
    1b84:	8d 81       	ldd	r24, Y+5	; 0x05
    1b86:	80 6c       	ori	r24, 0xC0	; 192
    1b88:	8d 83       	std	Y+5, r24	; 0x05
    1b8a:	f7 01       	movw	r30, r14
    1b8c:	84 81       	ldd	r24, Z+4	; 0x04
    1b8e:	8d 7f       	andi	r24, 0xFD	; 253
    1b90:	81 30       	cpi	r24, 0x01	; 1
    1b92:	21 f4       	brne	.+8      	; 0x1b9c <usart_init_spi+0x306>
    1b94:	8d 81       	ldd	r24, Y+5	; 0x05
    1b96:	82 60       	ori	r24, 0x02	; 2
    1b98:	8d 83       	std	Y+5, r24	; 0x05
    1b9a:	03 c0       	rjmp	.+6      	; 0x1ba2 <usart_init_spi+0x30c>
    1b9c:	8d 81       	ldd	r24, Y+5	; 0x05
    1b9e:	8d 7f       	andi	r24, 0xFD	; 253
    1ba0:	8d 83       	std	Y+5, r24	; 0x05
    1ba2:	f7 01       	movw	r30, r14
    1ba4:	85 81       	ldd	r24, Z+5	; 0x05
    1ba6:	88 23       	and	r24, r24
    1ba8:	21 f0       	breq	.+8      	; 0x1bb2 <usart_init_spi+0x31c>
    1baa:	8d 81       	ldd	r24, Y+5	; 0x05
    1bac:	84 60       	ori	r24, 0x04	; 4
    1bae:	8d 83       	std	Y+5, r24	; 0x05
    1bb0:	03 c0       	rjmp	.+6      	; 0x1bb8 <usart_init_spi+0x322>
    1bb2:	8d 81       	ldd	r24, Y+5	; 0x05
    1bb4:	8b 7f       	andi	r24, 0xFB	; 251
    1bb6:	8d 83       	std	Y+5, r24	; 0x05
    1bb8:	f7 01       	movw	r30, r14
    1bba:	40 81       	ld	r20, Z
    1bbc:	51 81       	ldd	r21, Z+1	; 0x01
    1bbe:	62 81       	ldd	r22, Z+2	; 0x02
    1bc0:	73 81       	ldd	r23, Z+3	; 0x03
    1bc2:	00 e8       	ldi	r16, 0x80	; 128
    1bc4:	14 e8       	ldi	r17, 0x84	; 132
    1bc6:	2e e1       	ldi	r18, 0x1E	; 30
    1bc8:	30 e0       	ldi	r19, 0x00	; 0
    1bca:	ce 01       	movw	r24, r28
    1bcc:	32 de       	rcall	.-924    	; 0x1832 <usart_spi_set_baudrate>
    1bce:	8c 81       	ldd	r24, Y+4	; 0x04
    1bd0:	88 60       	ori	r24, 0x08	; 8
    1bd2:	8c 83       	std	Y+4, r24	; 0x04
    1bd4:	8c 81       	ldd	r24, Y+4	; 0x04
    1bd6:	80 61       	ori	r24, 0x10	; 16
    1bd8:	8c 83       	std	Y+4, r24	; 0x04
    1bda:	10 c0       	rjmp	.+32     	; 0x1bfc <usart_init_spi+0x366>
    1bdc:	8c 81       	ldd	r24, Y+4	; 0x04
    1bde:	8f 7e       	andi	r24, 0xEF	; 239
    1be0:	8c 83       	std	Y+4, r24	; 0x04
    1be2:	f7 01       	movw	r30, r14
    1be4:	24 81       	ldd	r18, Z+4	; 0x04
    1be6:	22 50       	subi	r18, 0x02	; 2
    1be8:	ce 01       	movw	r24, r28
    1bea:	7c cf       	rjmp	.-264    	; 0x1ae4 <usart_init_spi+0x24e>
    1bec:	15 e1       	ldi	r17, 0x15	; 21
    1bee:	80 ea       	ldi	r24, 0xA0	; 160
    1bf0:	98 e0       	ldi	r25, 0x08	; 8
    1bf2:	86 cf       	rjmp	.-244    	; 0x1b00 <usart_init_spi+0x26a>
    1bf4:	1d e1       	ldi	r17, 0x1D	; 29
    1bf6:	94 cf       	rjmp	.-216    	; 0x1b20 <usart_init_spi+0x28a>
    1bf8:	15 e2       	ldi	r17, 0x25	; 37
    1bfa:	9e cf       	rjmp	.-196    	; 0x1b38 <usart_init_spi+0x2a2>
    1bfc:	df 91       	pop	r29
    1bfe:	cf 91       	pop	r28
    1c00:	1f 91       	pop	r17
    1c02:	0f 91       	pop	r16
    1c04:	ff 90       	pop	r15
    1c06:	ef 90       	pop	r14
    1c08:	08 95       	ret

00001c0a <vListInitialise>:
    1c0a:	fc 01       	movw	r30, r24
    1c0c:	03 96       	adiw	r24, 0x03	; 3
    1c0e:	81 83       	std	Z+1, r24	; 0x01
    1c10:	92 83       	std	Z+2, r25	; 0x02
    1c12:	2f ef       	ldi	r18, 0xFF	; 255
    1c14:	3f ef       	ldi	r19, 0xFF	; 255
    1c16:	23 83       	std	Z+3, r18	; 0x03
    1c18:	34 83       	std	Z+4, r19	; 0x04
    1c1a:	85 83       	std	Z+5, r24	; 0x05
    1c1c:	96 83       	std	Z+6, r25	; 0x06
    1c1e:	87 83       	std	Z+7, r24	; 0x07
    1c20:	90 87       	std	Z+8, r25	; 0x08
    1c22:	10 82       	st	Z, r1
    1c24:	08 95       	ret

00001c26 <vListInitialiseItem>:
    1c26:	fc 01       	movw	r30, r24
    1c28:	10 86       	std	Z+8, r1	; 0x08
    1c2a:	11 86       	std	Z+9, r1	; 0x09
    1c2c:	08 95       	ret

00001c2e <vListInsertEnd>:
    1c2e:	cf 93       	push	r28
    1c30:	df 93       	push	r29
    1c32:	9c 01       	movw	r18, r24
    1c34:	fb 01       	movw	r30, r22
    1c36:	dc 01       	movw	r26, r24
    1c38:	11 96       	adiw	r26, 0x01	; 1
    1c3a:	cd 91       	ld	r28, X+
    1c3c:	dc 91       	ld	r29, X
    1c3e:	12 97       	sbiw	r26, 0x02	; 2
    1c40:	c2 83       	std	Z+2, r28	; 0x02
    1c42:	d3 83       	std	Z+3, r29	; 0x03
    1c44:	8c 81       	ldd	r24, Y+4	; 0x04
    1c46:	9d 81       	ldd	r25, Y+5	; 0x05
    1c48:	84 83       	std	Z+4, r24	; 0x04
    1c4a:	95 83       	std	Z+5, r25	; 0x05
    1c4c:	8c 81       	ldd	r24, Y+4	; 0x04
    1c4e:	9d 81       	ldd	r25, Y+5	; 0x05
    1c50:	dc 01       	movw	r26, r24
    1c52:	12 96       	adiw	r26, 0x02	; 2
    1c54:	6d 93       	st	X+, r22
    1c56:	7c 93       	st	X, r23
    1c58:	13 97       	sbiw	r26, 0x03	; 3
    1c5a:	6c 83       	std	Y+4, r22	; 0x04
    1c5c:	7d 83       	std	Y+5, r23	; 0x05
    1c5e:	20 87       	std	Z+8, r18	; 0x08
    1c60:	31 87       	std	Z+9, r19	; 0x09
    1c62:	f9 01       	movw	r30, r18
    1c64:	80 81       	ld	r24, Z
    1c66:	8f 5f       	subi	r24, 0xFF	; 255
    1c68:	80 83       	st	Z, r24
    1c6a:	df 91       	pop	r29
    1c6c:	cf 91       	pop	r28
    1c6e:	08 95       	ret

00001c70 <vListInsert>:
    1c70:	cf 93       	push	r28
    1c72:	df 93       	push	r29
    1c74:	eb 01       	movw	r28, r22
    1c76:	48 81       	ld	r20, Y
    1c78:	59 81       	ldd	r21, Y+1	; 0x01
    1c7a:	4f 3f       	cpi	r20, 0xFF	; 255
    1c7c:	2f ef       	ldi	r18, 0xFF	; 255
    1c7e:	52 07       	cpc	r21, r18
    1c80:	21 f4       	brne	.+8      	; 0x1c8a <vListInsert+0x1a>
    1c82:	fc 01       	movw	r30, r24
    1c84:	a7 81       	ldd	r26, Z+7	; 0x07
    1c86:	b0 85       	ldd	r27, Z+8	; 0x08
    1c88:	0d c0       	rjmp	.+26     	; 0x1ca4 <vListInsert+0x34>
    1c8a:	dc 01       	movw	r26, r24
    1c8c:	13 96       	adiw	r26, 0x03	; 3
    1c8e:	01 c0       	rjmp	.+2      	; 0x1c92 <vListInsert+0x22>
    1c90:	df 01       	movw	r26, r30
    1c92:	12 96       	adiw	r26, 0x02	; 2
    1c94:	ed 91       	ld	r30, X+
    1c96:	fc 91       	ld	r31, X
    1c98:	13 97       	sbiw	r26, 0x03	; 3
    1c9a:	20 81       	ld	r18, Z
    1c9c:	31 81       	ldd	r19, Z+1	; 0x01
    1c9e:	42 17       	cp	r20, r18
    1ca0:	53 07       	cpc	r21, r19
    1ca2:	b0 f7       	brcc	.-20     	; 0x1c90 <vListInsert+0x20>
    1ca4:	12 96       	adiw	r26, 0x02	; 2
    1ca6:	ed 91       	ld	r30, X+
    1ca8:	fc 91       	ld	r31, X
    1caa:	13 97       	sbiw	r26, 0x03	; 3
    1cac:	ea 83       	std	Y+2, r30	; 0x02
    1cae:	fb 83       	std	Y+3, r31	; 0x03
    1cb0:	c4 83       	std	Z+4, r28	; 0x04
    1cb2:	d5 83       	std	Z+5, r29	; 0x05
    1cb4:	ac 83       	std	Y+4, r26	; 0x04
    1cb6:	bd 83       	std	Y+5, r27	; 0x05
    1cb8:	12 96       	adiw	r26, 0x02	; 2
    1cba:	cd 93       	st	X+, r28
    1cbc:	dc 93       	st	X, r29
    1cbe:	13 97       	sbiw	r26, 0x03	; 3
    1cc0:	88 87       	std	Y+8, r24	; 0x08
    1cc2:	99 87       	std	Y+9, r25	; 0x09
    1cc4:	fc 01       	movw	r30, r24
    1cc6:	20 81       	ld	r18, Z
    1cc8:	2f 5f       	subi	r18, 0xFF	; 255
    1cca:	20 83       	st	Z, r18
    1ccc:	df 91       	pop	r29
    1cce:	cf 91       	pop	r28
    1cd0:	08 95       	ret

00001cd2 <uxListRemove>:
    1cd2:	cf 93       	push	r28
    1cd4:	df 93       	push	r29
    1cd6:	fc 01       	movw	r30, r24
    1cd8:	a0 85       	ldd	r26, Z+8	; 0x08
    1cda:	b1 85       	ldd	r27, Z+9	; 0x09
    1cdc:	c2 81       	ldd	r28, Z+2	; 0x02
    1cde:	d3 81       	ldd	r29, Z+3	; 0x03
    1ce0:	84 81       	ldd	r24, Z+4	; 0x04
    1ce2:	95 81       	ldd	r25, Z+5	; 0x05
    1ce4:	8c 83       	std	Y+4, r24	; 0x04
    1ce6:	9d 83       	std	Y+5, r25	; 0x05
    1ce8:	c4 81       	ldd	r28, Z+4	; 0x04
    1cea:	d5 81       	ldd	r29, Z+5	; 0x05
    1cec:	82 81       	ldd	r24, Z+2	; 0x02
    1cee:	93 81       	ldd	r25, Z+3	; 0x03
    1cf0:	8a 83       	std	Y+2, r24	; 0x02
    1cf2:	9b 83       	std	Y+3, r25	; 0x03
    1cf4:	11 96       	adiw	r26, 0x01	; 1
    1cf6:	8d 91       	ld	r24, X+
    1cf8:	9c 91       	ld	r25, X
    1cfa:	12 97       	sbiw	r26, 0x02	; 2
    1cfc:	e8 17       	cp	r30, r24
    1cfe:	f9 07       	cpc	r31, r25
    1d00:	31 f4       	brne	.+12     	; 0x1d0e <uxListRemove+0x3c>
    1d02:	84 81       	ldd	r24, Z+4	; 0x04
    1d04:	95 81       	ldd	r25, Z+5	; 0x05
    1d06:	11 96       	adiw	r26, 0x01	; 1
    1d08:	8d 93       	st	X+, r24
    1d0a:	9c 93       	st	X, r25
    1d0c:	12 97       	sbiw	r26, 0x02	; 2
    1d0e:	10 86       	std	Z+8, r1	; 0x08
    1d10:	11 86       	std	Z+9, r1	; 0x09
    1d12:	8c 91       	ld	r24, X
    1d14:	81 50       	subi	r24, 0x01	; 1
    1d16:	8c 93       	st	X, r24
    1d18:	df 91       	pop	r29
    1d1a:	cf 91       	pop	r28
    1d1c:	08 95       	ret

00001d1e <pxPortInitialiseStack>:
    1d1e:	0f 93       	push	r16
    1d20:	1f 93       	push	r17
    1d22:	8b 01       	movw	r16, r22
    1d24:	71 e1       	ldi	r23, 0x11	; 17
    1d26:	fc 01       	movw	r30, r24
    1d28:	70 83       	st	Z, r23
    1d2a:	31 97       	sbiw	r30, 0x01	; 1
    1d2c:	62 e2       	ldi	r22, 0x22	; 34
    1d2e:	60 83       	st	Z, r22
    1d30:	31 97       	sbiw	r30, 0x01	; 1
    1d32:	23 e3       	ldi	r18, 0x33	; 51
    1d34:	20 83       	st	Z, r18
    1d36:	01 2e       	mov	r0, r17
    1d38:	00 0c       	add	r0, r0
    1d3a:	22 0b       	sbc	r18, r18
    1d3c:	33 0b       	sbc	r19, r19
    1d3e:	31 97       	sbiw	r30, 0x01	; 1
    1d40:	00 83       	st	Z, r16
    1d42:	31 97       	sbiw	r30, 0x01	; 1
    1d44:	10 83       	st	Z, r17
    1d46:	31 97       	sbiw	r30, 0x01	; 1
    1d48:	20 83       	st	Z, r18
    1d4a:	31 97       	sbiw	r30, 0x01	; 1
    1d4c:	10 82       	st	Z, r1
    1d4e:	31 97       	sbiw	r30, 0x01	; 1
    1d50:	20 e8       	ldi	r18, 0x80	; 128
    1d52:	20 83       	st	Z, r18
    1d54:	31 97       	sbiw	r30, 0x01	; 1
    1d56:	10 82       	st	Z, r1
    1d58:	31 97       	sbiw	r30, 0x01	; 1
    1d5a:	22 e0       	ldi	r18, 0x02	; 2
    1d5c:	20 83       	st	Z, r18
    1d5e:	31 97       	sbiw	r30, 0x01	; 1
    1d60:	23 e0       	ldi	r18, 0x03	; 3
    1d62:	20 83       	st	Z, r18
    1d64:	31 97       	sbiw	r30, 0x01	; 1
    1d66:	24 e0       	ldi	r18, 0x04	; 4
    1d68:	20 83       	st	Z, r18
    1d6a:	31 97       	sbiw	r30, 0x01	; 1
    1d6c:	25 e0       	ldi	r18, 0x05	; 5
    1d6e:	20 83       	st	Z, r18
    1d70:	31 97       	sbiw	r30, 0x01	; 1
    1d72:	26 e0       	ldi	r18, 0x06	; 6
    1d74:	20 83       	st	Z, r18
    1d76:	31 97       	sbiw	r30, 0x01	; 1
    1d78:	27 e0       	ldi	r18, 0x07	; 7
    1d7a:	20 83       	st	Z, r18
    1d7c:	31 97       	sbiw	r30, 0x01	; 1
    1d7e:	28 e0       	ldi	r18, 0x08	; 8
    1d80:	20 83       	st	Z, r18
    1d82:	31 97       	sbiw	r30, 0x01	; 1
    1d84:	29 e0       	ldi	r18, 0x09	; 9
    1d86:	20 83       	st	Z, r18
    1d88:	31 97       	sbiw	r30, 0x01	; 1
    1d8a:	20 e1       	ldi	r18, 0x10	; 16
    1d8c:	20 83       	st	Z, r18
    1d8e:	31 97       	sbiw	r30, 0x01	; 1
    1d90:	70 83       	st	Z, r23
    1d92:	31 97       	sbiw	r30, 0x01	; 1
    1d94:	22 e1       	ldi	r18, 0x12	; 18
    1d96:	20 83       	st	Z, r18
    1d98:	31 97       	sbiw	r30, 0x01	; 1
    1d9a:	23 e1       	ldi	r18, 0x13	; 19
    1d9c:	20 83       	st	Z, r18
    1d9e:	31 97       	sbiw	r30, 0x01	; 1
    1da0:	24 e1       	ldi	r18, 0x14	; 20
    1da2:	20 83       	st	Z, r18
    1da4:	31 97       	sbiw	r30, 0x01	; 1
    1da6:	25 e1       	ldi	r18, 0x15	; 21
    1da8:	20 83       	st	Z, r18
    1daa:	31 97       	sbiw	r30, 0x01	; 1
    1dac:	26 e1       	ldi	r18, 0x16	; 22
    1dae:	20 83       	st	Z, r18
    1db0:	31 97       	sbiw	r30, 0x01	; 1
    1db2:	27 e1       	ldi	r18, 0x17	; 23
    1db4:	20 83       	st	Z, r18
    1db6:	31 97       	sbiw	r30, 0x01	; 1
    1db8:	28 e1       	ldi	r18, 0x18	; 24
    1dba:	20 83       	st	Z, r18
    1dbc:	31 97       	sbiw	r30, 0x01	; 1
    1dbe:	29 e1       	ldi	r18, 0x19	; 25
    1dc0:	20 83       	st	Z, r18
    1dc2:	31 97       	sbiw	r30, 0x01	; 1
    1dc4:	20 e2       	ldi	r18, 0x20	; 32
    1dc6:	20 83       	st	Z, r18
    1dc8:	31 97       	sbiw	r30, 0x01	; 1
    1dca:	21 e2       	ldi	r18, 0x21	; 33
    1dcc:	20 83       	st	Z, r18
    1dce:	31 97       	sbiw	r30, 0x01	; 1
    1dd0:	60 83       	st	Z, r22
    1dd2:	31 97       	sbiw	r30, 0x01	; 1
    1dd4:	23 e2       	ldi	r18, 0x23	; 35
    1dd6:	20 83       	st	Z, r18
    1dd8:	31 97       	sbiw	r30, 0x01	; 1
    1dda:	40 83       	st	Z, r20
    1ddc:	31 97       	sbiw	r30, 0x01	; 1
    1dde:	50 83       	st	Z, r21
    1de0:	31 97       	sbiw	r30, 0x01	; 1
    1de2:	26 e2       	ldi	r18, 0x26	; 38
    1de4:	20 83       	st	Z, r18
    1de6:	31 97       	sbiw	r30, 0x01	; 1
    1de8:	27 e2       	ldi	r18, 0x27	; 39
    1dea:	20 83       	st	Z, r18
    1dec:	31 97       	sbiw	r30, 0x01	; 1
    1dee:	28 e2       	ldi	r18, 0x28	; 40
    1df0:	20 83       	st	Z, r18
    1df2:	31 97       	sbiw	r30, 0x01	; 1
    1df4:	29 e2       	ldi	r18, 0x29	; 41
    1df6:	20 83       	st	Z, r18
    1df8:	31 97       	sbiw	r30, 0x01	; 1
    1dfa:	20 e3       	ldi	r18, 0x30	; 48
    1dfc:	20 83       	st	Z, r18
    1dfe:	31 97       	sbiw	r30, 0x01	; 1
    1e00:	21 e3       	ldi	r18, 0x31	; 49
    1e02:	20 83       	st	Z, r18
    1e04:	87 97       	sbiw	r24, 0x27	; 39
    1e06:	1f 91       	pop	r17
    1e08:	0f 91       	pop	r16
    1e0a:	08 95       	ret

00001e0c <xPortStartScheduler>:
    1e0c:	f8 94       	cli
    1e0e:	e0 e7       	ldi	r30, 0x70	; 112
    1e10:	f0 e0       	ldi	r31, 0x00	; 0
    1e12:	83 81       	ldd	r24, Z+3	; 0x03
    1e14:	8a 7f       	andi	r24, 0xFA	; 250
    1e16:	83 83       	std	Z+3, r24	; 0x03
    1e18:	e0 e0       	ldi	r30, 0x00	; 0
    1e1a:	f8 e0       	ldi	r31, 0x08	; 8
    1e1c:	80 e0       	ldi	r24, 0x00	; 0
    1e1e:	9a ef       	ldi	r25, 0xFA	; 250
    1e20:	86 a3       	std	Z+38, r24	; 0x26
    1e22:	97 a3       	std	Z+39, r25	; 0x27
    1e24:	91 e0       	ldi	r25, 0x01	; 1
    1e26:	96 83       	std	Z+6, r25	; 0x06
    1e28:	a0 ea       	ldi	r26, 0xA0	; 160
    1e2a:	b0 e0       	ldi	r27, 0x00	; 0
    1e2c:	12 96       	adiw	r26, 0x02	; 2
    1e2e:	8c 91       	ld	r24, X
    1e30:	12 97       	sbiw	r26, 0x02	; 2
    1e32:	81 60       	ori	r24, 0x01	; 1
    1e34:	12 96       	adiw	r26, 0x02	; 2
    1e36:	8c 93       	st	X, r24
    1e38:	90 83       	st	Z, r25
    1e3a:	78 94       	sei
    1e3c:	a0 91 aa 22 	lds	r26, 0x22AA	; 0x8022aa <pxCurrentTCB>
    1e40:	b0 91 ab 22 	lds	r27, 0x22AB	; 0x8022ab <pxCurrentTCB+0x1>
    1e44:	0d 90       	ld	r0, X+
    1e46:	0d be       	out	0x3d, r0	; 61
    1e48:	0d 90       	ld	r0, X+
    1e4a:	0e be       	out	0x3e, r0	; 62
    1e4c:	ff 91       	pop	r31
    1e4e:	ef 91       	pop	r30
    1e50:	df 91       	pop	r29
    1e52:	cf 91       	pop	r28
    1e54:	bf 91       	pop	r27
    1e56:	af 91       	pop	r26
    1e58:	9f 91       	pop	r25
    1e5a:	8f 91       	pop	r24
    1e5c:	7f 91       	pop	r23
    1e5e:	6f 91       	pop	r22
    1e60:	5f 91       	pop	r21
    1e62:	4f 91       	pop	r20
    1e64:	3f 91       	pop	r19
    1e66:	2f 91       	pop	r18
    1e68:	1f 91       	pop	r17
    1e6a:	0f 91       	pop	r16
    1e6c:	ff 90       	pop	r15
    1e6e:	ef 90       	pop	r14
    1e70:	df 90       	pop	r13
    1e72:	cf 90       	pop	r12
    1e74:	bf 90       	pop	r11
    1e76:	af 90       	pop	r10
    1e78:	9f 90       	pop	r9
    1e7a:	8f 90       	pop	r8
    1e7c:	7f 90       	pop	r7
    1e7e:	6f 90       	pop	r6
    1e80:	5f 90       	pop	r5
    1e82:	4f 90       	pop	r4
    1e84:	3f 90       	pop	r3
    1e86:	2f 90       	pop	r2
    1e88:	1f 90       	pop	r1
    1e8a:	0f 90       	pop	r0
    1e8c:	0f be       	out	0x3f, r0	; 63
    1e8e:	0f 90       	pop	r0
    1e90:	08 95       	ret
    1e92:	81 e0       	ldi	r24, 0x01	; 1
    1e94:	08 95       	ret

00001e96 <vPortYield>:
    1e96:	0f 92       	push	r0
    1e98:	0f b6       	in	r0, 0x3f	; 63
    1e9a:	f8 94       	cli
    1e9c:	0f 92       	push	r0
    1e9e:	1f 92       	push	r1
    1ea0:	11 24       	eor	r1, r1
    1ea2:	2f 92       	push	r2
    1ea4:	3f 92       	push	r3
    1ea6:	4f 92       	push	r4
    1ea8:	5f 92       	push	r5
    1eaa:	6f 92       	push	r6
    1eac:	7f 92       	push	r7
    1eae:	8f 92       	push	r8
    1eb0:	9f 92       	push	r9
    1eb2:	af 92       	push	r10
    1eb4:	bf 92       	push	r11
    1eb6:	cf 92       	push	r12
    1eb8:	df 92       	push	r13
    1eba:	ef 92       	push	r14
    1ebc:	ff 92       	push	r15
    1ebe:	0f 93       	push	r16
    1ec0:	1f 93       	push	r17
    1ec2:	2f 93       	push	r18
    1ec4:	3f 93       	push	r19
    1ec6:	4f 93       	push	r20
    1ec8:	5f 93       	push	r21
    1eca:	6f 93       	push	r22
    1ecc:	7f 93       	push	r23
    1ece:	8f 93       	push	r24
    1ed0:	9f 93       	push	r25
    1ed2:	af 93       	push	r26
    1ed4:	bf 93       	push	r27
    1ed6:	cf 93       	push	r28
    1ed8:	df 93       	push	r29
    1eda:	ef 93       	push	r30
    1edc:	ff 93       	push	r31
    1ede:	a0 91 aa 22 	lds	r26, 0x22AA	; 0x8022aa <pxCurrentTCB>
    1ee2:	b0 91 ab 22 	lds	r27, 0x22AB	; 0x8022ab <pxCurrentTCB+0x1>
    1ee6:	0d b6       	in	r0, 0x3d	; 61
    1ee8:	0d 92       	st	X+, r0
    1eea:	0e b6       	in	r0, 0x3e	; 62
    1eec:	0d 92       	st	X+, r0
    1eee:	0e d6       	rcall	.+3100   	; 0x2b0c <vTaskSwitchContext>
    1ef0:	a0 91 aa 22 	lds	r26, 0x22AA	; 0x8022aa <pxCurrentTCB>
    1ef4:	b0 91 ab 22 	lds	r27, 0x22AB	; 0x8022ab <pxCurrentTCB+0x1>
    1ef8:	0d 90       	ld	r0, X+
    1efa:	0d be       	out	0x3d, r0	; 61
    1efc:	0d 90       	ld	r0, X+
    1efe:	0e be       	out	0x3e, r0	; 62
    1f00:	ff 91       	pop	r31
    1f02:	ef 91       	pop	r30
    1f04:	df 91       	pop	r29
    1f06:	cf 91       	pop	r28
    1f08:	bf 91       	pop	r27
    1f0a:	af 91       	pop	r26
    1f0c:	9f 91       	pop	r25
    1f0e:	8f 91       	pop	r24
    1f10:	7f 91       	pop	r23
    1f12:	6f 91       	pop	r22
    1f14:	5f 91       	pop	r21
    1f16:	4f 91       	pop	r20
    1f18:	3f 91       	pop	r19
    1f1a:	2f 91       	pop	r18
    1f1c:	1f 91       	pop	r17
    1f1e:	0f 91       	pop	r16
    1f20:	ff 90       	pop	r15
    1f22:	ef 90       	pop	r14
    1f24:	df 90       	pop	r13
    1f26:	cf 90       	pop	r12
    1f28:	bf 90       	pop	r11
    1f2a:	af 90       	pop	r10
    1f2c:	9f 90       	pop	r9
    1f2e:	8f 90       	pop	r8
    1f30:	7f 90       	pop	r7
    1f32:	6f 90       	pop	r6
    1f34:	5f 90       	pop	r5
    1f36:	4f 90       	pop	r4
    1f38:	3f 90       	pop	r3
    1f3a:	2f 90       	pop	r2
    1f3c:	1f 90       	pop	r1
    1f3e:	0f 90       	pop	r0
    1f40:	0f be       	out	0x3f, r0	; 63
    1f42:	0f 90       	pop	r0
    1f44:	08 95       	ret

00001f46 <__vector_14>:
    1f46:	0f 92       	push	r0
    1f48:	0f b6       	in	r0, 0x3f	; 63
    1f4a:	f8 94       	cli
    1f4c:	0f 92       	push	r0
    1f4e:	1f 92       	push	r1
    1f50:	11 24       	eor	r1, r1
    1f52:	2f 92       	push	r2
    1f54:	3f 92       	push	r3
    1f56:	4f 92       	push	r4
    1f58:	5f 92       	push	r5
    1f5a:	6f 92       	push	r6
    1f5c:	7f 92       	push	r7
    1f5e:	8f 92       	push	r8
    1f60:	9f 92       	push	r9
    1f62:	af 92       	push	r10
    1f64:	bf 92       	push	r11
    1f66:	cf 92       	push	r12
    1f68:	df 92       	push	r13
    1f6a:	ef 92       	push	r14
    1f6c:	ff 92       	push	r15
    1f6e:	0f 93       	push	r16
    1f70:	1f 93       	push	r17
    1f72:	2f 93       	push	r18
    1f74:	3f 93       	push	r19
    1f76:	4f 93       	push	r20
    1f78:	5f 93       	push	r21
    1f7a:	6f 93       	push	r22
    1f7c:	7f 93       	push	r23
    1f7e:	8f 93       	push	r24
    1f80:	9f 93       	push	r25
    1f82:	af 93       	push	r26
    1f84:	bf 93       	push	r27
    1f86:	cf 93       	push	r28
    1f88:	df 93       	push	r29
    1f8a:	ef 93       	push	r30
    1f8c:	ff 93       	push	r31
    1f8e:	a0 91 aa 22 	lds	r26, 0x22AA	; 0x8022aa <pxCurrentTCB>
    1f92:	b0 91 ab 22 	lds	r27, 0x22AB	; 0x8022ab <pxCurrentTCB+0x1>
    1f96:	0d b6       	in	r0, 0x3d	; 61
    1f98:	0d 92       	st	X+, r0
    1f9a:	0e b6       	in	r0, 0x3e	; 62
    1f9c:	0d 92       	st	X+, r0
    1f9e:	4b d4       	rcall	.+2198   	; 0x2836 <xTaskIncrementTick>
    1fa0:	81 11       	cpse	r24, r1
    1fa2:	b4 d5       	rcall	.+2920   	; 0x2b0c <vTaskSwitchContext>
    1fa4:	a0 91 aa 22 	lds	r26, 0x22AA	; 0x8022aa <pxCurrentTCB>
    1fa8:	b0 91 ab 22 	lds	r27, 0x22AB	; 0x8022ab <pxCurrentTCB+0x1>
    1fac:	0d 90       	ld	r0, X+
    1fae:	0d be       	out	0x3d, r0	; 61
    1fb0:	0d 90       	ld	r0, X+
    1fb2:	0e be       	out	0x3e, r0	; 62
    1fb4:	ff 91       	pop	r31
    1fb6:	ef 91       	pop	r30
    1fb8:	df 91       	pop	r29
    1fba:	cf 91       	pop	r28
    1fbc:	bf 91       	pop	r27
    1fbe:	af 91       	pop	r26
    1fc0:	9f 91       	pop	r25
    1fc2:	8f 91       	pop	r24
    1fc4:	7f 91       	pop	r23
    1fc6:	6f 91       	pop	r22
    1fc8:	5f 91       	pop	r21
    1fca:	4f 91       	pop	r20
    1fcc:	3f 91       	pop	r19
    1fce:	2f 91       	pop	r18
    1fd0:	1f 91       	pop	r17
    1fd2:	0f 91       	pop	r16
    1fd4:	ff 90       	pop	r15
    1fd6:	ef 90       	pop	r14
    1fd8:	df 90       	pop	r13
    1fda:	cf 90       	pop	r12
    1fdc:	bf 90       	pop	r11
    1fde:	af 90       	pop	r10
    1fe0:	9f 90       	pop	r9
    1fe2:	8f 90       	pop	r8
    1fe4:	7f 90       	pop	r7
    1fe6:	6f 90       	pop	r6
    1fe8:	5f 90       	pop	r5
    1fea:	4f 90       	pop	r4
    1fec:	3f 90       	pop	r3
    1fee:	2f 90       	pop	r2
    1ff0:	1f 90       	pop	r1
    1ff2:	0f 90       	pop	r0
    1ff4:	0f be       	out	0x3f, r0	; 63
    1ff6:	0f 90       	pop	r0
    1ff8:	18 95       	reti

00001ffa <pvPortMalloc>:
    1ffa:	cf 93       	push	r28
    1ffc:	df 93       	push	r29
    1ffe:	ec 01       	movw	r28, r24
    2000:	0a d4       	rcall	.+2068   	; 0x2816 <vTaskSuspendAll>
    2002:	ce 01       	movw	r24, r28
    2004:	0e 94 a1 1c 	call	0x3942	; 0x3942 <malloc>
    2008:	ec 01       	movw	r28, r24
    200a:	e8 d4       	rcall	.+2512   	; 0x29dc <xTaskResumeAll>
    200c:	ce 01       	movw	r24, r28
    200e:	df 91       	pop	r29
    2010:	cf 91       	pop	r28
    2012:	08 95       	ret

00002014 <vPortFree>:
    2014:	cf 93       	push	r28
    2016:	df 93       	push	r29
    2018:	00 97       	sbiw	r24, 0x00	; 0
    201a:	31 f0       	breq	.+12     	; 0x2028 <vPortFree+0x14>
    201c:	ec 01       	movw	r28, r24
    201e:	fb d3       	rcall	.+2038   	; 0x2816 <vTaskSuspendAll>
    2020:	ce 01       	movw	r24, r28
    2022:	0e 94 39 1d 	call	0x3a72	; 0x3a72 <free>
    2026:	da d4       	rcall	.+2484   	; 0x29dc <xTaskResumeAll>
    2028:	df 91       	pop	r29
    202a:	cf 91       	pop	r28
    202c:	08 95       	ret

0000202e <prvCopyDataToQueue>:
    202e:	1f 93       	push	r17
    2030:	cf 93       	push	r28
    2032:	df 93       	push	r29
    2034:	ec 01       	movw	r28, r24
    2036:	14 2f       	mov	r17, r20
    2038:	4c 8d       	ldd	r20, Y+28	; 0x1c
    203a:	44 23       	and	r20, r20
    203c:	d9 f1       	breq	.+118    	; 0x20b4 <prvCopyDataToQueue+0x86>
    203e:	11 11       	cpse	r17, r1
    2040:	16 c0       	rjmp	.+44     	; 0x206e <prvCopyDataToQueue+0x40>
    2042:	50 e0       	ldi	r21, 0x00	; 0
    2044:	8c 81       	ldd	r24, Y+4	; 0x04
    2046:	9d 81       	ldd	r25, Y+5	; 0x05
    2048:	0e 94 c2 1d 	call	0x3b84	; 0x3b84 <memcpy>
    204c:	2c 8d       	ldd	r18, Y+28	; 0x1c
    204e:	8c 81       	ldd	r24, Y+4	; 0x04
    2050:	9d 81       	ldd	r25, Y+5	; 0x05
    2052:	82 0f       	add	r24, r18
    2054:	91 1d       	adc	r25, r1
    2056:	8c 83       	std	Y+4, r24	; 0x04
    2058:	9d 83       	std	Y+5, r25	; 0x05
    205a:	2a 81       	ldd	r18, Y+2	; 0x02
    205c:	3b 81       	ldd	r19, Y+3	; 0x03
    205e:	82 17       	cp	r24, r18
    2060:	93 07       	cpc	r25, r19
    2062:	40 f1       	brcs	.+80     	; 0x20b4 <prvCopyDataToQueue+0x86>
    2064:	88 81       	ld	r24, Y
    2066:	99 81       	ldd	r25, Y+1	; 0x01
    2068:	8c 83       	std	Y+4, r24	; 0x04
    206a:	9d 83       	std	Y+5, r25	; 0x05
    206c:	23 c0       	rjmp	.+70     	; 0x20b4 <prvCopyDataToQueue+0x86>
    206e:	50 e0       	ldi	r21, 0x00	; 0
    2070:	8e 81       	ldd	r24, Y+6	; 0x06
    2072:	9f 81       	ldd	r25, Y+7	; 0x07
    2074:	0e 94 c2 1d 	call	0x3b84	; 0x3b84 <memcpy>
    2078:	8c 8d       	ldd	r24, Y+28	; 0x1c
    207a:	90 e0       	ldi	r25, 0x00	; 0
    207c:	91 95       	neg	r25
    207e:	81 95       	neg	r24
    2080:	91 09       	sbc	r25, r1
    2082:	2e 81       	ldd	r18, Y+6	; 0x06
    2084:	3f 81       	ldd	r19, Y+7	; 0x07
    2086:	28 0f       	add	r18, r24
    2088:	39 1f       	adc	r19, r25
    208a:	2e 83       	std	Y+6, r18	; 0x06
    208c:	3f 83       	std	Y+7, r19	; 0x07
    208e:	48 81       	ld	r20, Y
    2090:	59 81       	ldd	r21, Y+1	; 0x01
    2092:	24 17       	cp	r18, r20
    2094:	35 07       	cpc	r19, r21
    2096:	30 f4       	brcc	.+12     	; 0x20a4 <prvCopyDataToQueue+0x76>
    2098:	2a 81       	ldd	r18, Y+2	; 0x02
    209a:	3b 81       	ldd	r19, Y+3	; 0x03
    209c:	82 0f       	add	r24, r18
    209e:	93 1f       	adc	r25, r19
    20a0:	8e 83       	std	Y+6, r24	; 0x06
    20a2:	9f 83       	std	Y+7, r25	; 0x07
    20a4:	12 30       	cpi	r17, 0x02	; 2
    20a6:	31 f4       	brne	.+12     	; 0x20b4 <prvCopyDataToQueue+0x86>
    20a8:	8a 8d       	ldd	r24, Y+26	; 0x1a
    20aa:	88 23       	and	r24, r24
    20ac:	19 f0       	breq	.+6      	; 0x20b4 <prvCopyDataToQueue+0x86>
    20ae:	8a 8d       	ldd	r24, Y+26	; 0x1a
    20b0:	81 50       	subi	r24, 0x01	; 1
    20b2:	8a 8f       	std	Y+26, r24	; 0x1a
    20b4:	8a 8d       	ldd	r24, Y+26	; 0x1a
    20b6:	8f 5f       	subi	r24, 0xFF	; 255
    20b8:	8a 8f       	std	Y+26, r24	; 0x1a
    20ba:	80 e0       	ldi	r24, 0x00	; 0
    20bc:	df 91       	pop	r29
    20be:	cf 91       	pop	r28
    20c0:	1f 91       	pop	r17
    20c2:	08 95       	ret

000020c4 <prvCopyDataFromQueue>:
    20c4:	fc 01       	movw	r30, r24
    20c6:	44 8d       	ldd	r20, Z+28	; 0x1c
    20c8:	44 23       	and	r20, r20
    20ca:	a9 f0       	breq	.+42     	; 0x20f6 <prvCopyDataFromQueue+0x32>
    20cc:	50 e0       	ldi	r21, 0x00	; 0
    20ce:	26 81       	ldd	r18, Z+6	; 0x06
    20d0:	37 81       	ldd	r19, Z+7	; 0x07
    20d2:	24 0f       	add	r18, r20
    20d4:	35 1f       	adc	r19, r21
    20d6:	26 83       	std	Z+6, r18	; 0x06
    20d8:	37 83       	std	Z+7, r19	; 0x07
    20da:	82 81       	ldd	r24, Z+2	; 0x02
    20dc:	93 81       	ldd	r25, Z+3	; 0x03
    20de:	28 17       	cp	r18, r24
    20e0:	39 07       	cpc	r19, r25
    20e2:	20 f0       	brcs	.+8      	; 0x20ec <prvCopyDataFromQueue+0x28>
    20e4:	80 81       	ld	r24, Z
    20e6:	91 81       	ldd	r25, Z+1	; 0x01
    20e8:	86 83       	std	Z+6, r24	; 0x06
    20ea:	97 83       	std	Z+7, r25	; 0x07
    20ec:	cb 01       	movw	r24, r22
    20ee:	66 81       	ldd	r22, Z+6	; 0x06
    20f0:	77 81       	ldd	r23, Z+7	; 0x07
    20f2:	0c 94 c2 1d 	jmp	0x3b84	; 0x3b84 <memcpy>
    20f6:	08 95       	ret

000020f8 <prvUnlockQueue>:
    20f8:	0f 93       	push	r16
    20fa:	1f 93       	push	r17
    20fc:	cf 93       	push	r28
    20fe:	df 93       	push	r29
    2100:	ec 01       	movw	r28, r24
    2102:	0f b6       	in	r0, 0x3f	; 63
    2104:	f8 94       	cli
    2106:	0f 92       	push	r0
    2108:	8e 8d       	ldd	r24, Y+30	; 0x1e
    210a:	18 16       	cp	r1, r24
    210c:	ac f4       	brge	.+42     	; 0x2138 <prvUnlockQueue+0x40>
    210e:	89 89       	ldd	r24, Y+17	; 0x11
    2110:	81 11       	cpse	r24, r1
    2112:	05 c0       	rjmp	.+10     	; 0x211e <prvUnlockQueue+0x26>
    2114:	11 c0       	rjmp	.+34     	; 0x2138 <prvUnlockQueue+0x40>
    2116:	89 89       	ldd	r24, Y+17	; 0x11
    2118:	81 11       	cpse	r24, r1
    211a:	04 c0       	rjmp	.+8      	; 0x2124 <prvUnlockQueue+0x2c>
    211c:	0d c0       	rjmp	.+26     	; 0x2138 <prvUnlockQueue+0x40>
    211e:	8e 01       	movw	r16, r28
    2120:	0f 5e       	subi	r16, 0xEF	; 239
    2122:	1f 4f       	sbci	r17, 0xFF	; 255
    2124:	c8 01       	movw	r24, r16
    2126:	93 d5       	rcall	.+2854   	; 0x2c4e <xTaskRemoveFromEventList>
    2128:	81 11       	cpse	r24, r1
    212a:	13 d6       	rcall	.+3110   	; 0x2d52 <vTaskMissedYield>
    212c:	8e 8d       	ldd	r24, Y+30	; 0x1e
    212e:	81 50       	subi	r24, 0x01	; 1
    2130:	8e 8f       	std	Y+30, r24	; 0x1e
    2132:	8e 8d       	ldd	r24, Y+30	; 0x1e
    2134:	18 16       	cp	r1, r24
    2136:	7c f3       	brlt	.-34     	; 0x2116 <prvUnlockQueue+0x1e>
    2138:	8f ef       	ldi	r24, 0xFF	; 255
    213a:	8e 8f       	std	Y+30, r24	; 0x1e
    213c:	0f 90       	pop	r0
    213e:	0f be       	out	0x3f, r0	; 63
    2140:	0f b6       	in	r0, 0x3f	; 63
    2142:	f8 94       	cli
    2144:	0f 92       	push	r0
    2146:	8d 8d       	ldd	r24, Y+29	; 0x1d
    2148:	18 16       	cp	r1, r24
    214a:	ac f4       	brge	.+42     	; 0x2176 <prvUnlockQueue+0x7e>
    214c:	88 85       	ldd	r24, Y+8	; 0x08
    214e:	81 11       	cpse	r24, r1
    2150:	05 c0       	rjmp	.+10     	; 0x215c <prvUnlockQueue+0x64>
    2152:	11 c0       	rjmp	.+34     	; 0x2176 <prvUnlockQueue+0x7e>
    2154:	88 85       	ldd	r24, Y+8	; 0x08
    2156:	81 11       	cpse	r24, r1
    2158:	04 c0       	rjmp	.+8      	; 0x2162 <prvUnlockQueue+0x6a>
    215a:	0d c0       	rjmp	.+26     	; 0x2176 <prvUnlockQueue+0x7e>
    215c:	8e 01       	movw	r16, r28
    215e:	08 5f       	subi	r16, 0xF8	; 248
    2160:	1f 4f       	sbci	r17, 0xFF	; 255
    2162:	c8 01       	movw	r24, r16
    2164:	74 d5       	rcall	.+2792   	; 0x2c4e <xTaskRemoveFromEventList>
    2166:	81 11       	cpse	r24, r1
    2168:	f4 d5       	rcall	.+3048   	; 0x2d52 <vTaskMissedYield>
    216a:	8d 8d       	ldd	r24, Y+29	; 0x1d
    216c:	81 50       	subi	r24, 0x01	; 1
    216e:	8d 8f       	std	Y+29, r24	; 0x1d
    2170:	8d 8d       	ldd	r24, Y+29	; 0x1d
    2172:	18 16       	cp	r1, r24
    2174:	7c f3       	brlt	.-34     	; 0x2154 <prvUnlockQueue+0x5c>
    2176:	8f ef       	ldi	r24, 0xFF	; 255
    2178:	8d 8f       	std	Y+29, r24	; 0x1d
    217a:	0f 90       	pop	r0
    217c:	0f be       	out	0x3f, r0	; 63
    217e:	df 91       	pop	r29
    2180:	cf 91       	pop	r28
    2182:	1f 91       	pop	r17
    2184:	0f 91       	pop	r16
    2186:	08 95       	ret

00002188 <xQueueGenericReset>:
    2188:	cf 93       	push	r28
    218a:	df 93       	push	r29
    218c:	ec 01       	movw	r28, r24
    218e:	0f b6       	in	r0, 0x3f	; 63
    2190:	f8 94       	cli
    2192:	0f 92       	push	r0
    2194:	48 81       	ld	r20, Y
    2196:	59 81       	ldd	r21, Y+1	; 0x01
    2198:	2c 8d       	ldd	r18, Y+28	; 0x1c
    219a:	30 e0       	ldi	r19, 0x00	; 0
    219c:	7b 8d       	ldd	r23, Y+27	; 0x1b
    219e:	72 9f       	mul	r23, r18
    21a0:	c0 01       	movw	r24, r0
    21a2:	73 9f       	mul	r23, r19
    21a4:	90 0d       	add	r25, r0
    21a6:	11 24       	eor	r1, r1
    21a8:	fa 01       	movw	r30, r20
    21aa:	e8 0f       	add	r30, r24
    21ac:	f9 1f       	adc	r31, r25
    21ae:	ea 83       	std	Y+2, r30	; 0x02
    21b0:	fb 83       	std	Y+3, r31	; 0x03
    21b2:	1a 8e       	std	Y+26, r1	; 0x1a
    21b4:	4c 83       	std	Y+4, r20	; 0x04
    21b6:	5d 83       	std	Y+5, r21	; 0x05
    21b8:	82 1b       	sub	r24, r18
    21ba:	93 0b       	sbc	r25, r19
    21bc:	84 0f       	add	r24, r20
    21be:	95 1f       	adc	r25, r21
    21c0:	8e 83       	std	Y+6, r24	; 0x06
    21c2:	9f 83       	std	Y+7, r25	; 0x07
    21c4:	8f ef       	ldi	r24, 0xFF	; 255
    21c6:	8d 8f       	std	Y+29, r24	; 0x1d
    21c8:	8e 8f       	std	Y+30, r24	; 0x1e
    21ca:	61 11       	cpse	r22, r1
    21cc:	0a c0       	rjmp	.+20     	; 0x21e2 <xQueueGenericReset+0x5a>
    21ce:	88 85       	ldd	r24, Y+8	; 0x08
    21d0:	88 23       	and	r24, r24
    21d2:	69 f0       	breq	.+26     	; 0x21ee <xQueueGenericReset+0x66>
    21d4:	ce 01       	movw	r24, r28
    21d6:	08 96       	adiw	r24, 0x08	; 8
    21d8:	3a d5       	rcall	.+2676   	; 0x2c4e <xTaskRemoveFromEventList>
    21da:	81 30       	cpi	r24, 0x01	; 1
    21dc:	41 f4       	brne	.+16     	; 0x21ee <xQueueGenericReset+0x66>
    21de:	5b de       	rcall	.-842    	; 0x1e96 <vPortYield>
    21e0:	06 c0       	rjmp	.+12     	; 0x21ee <xQueueGenericReset+0x66>
    21e2:	ce 01       	movw	r24, r28
    21e4:	08 96       	adiw	r24, 0x08	; 8
    21e6:	11 dd       	rcall	.-1502   	; 0x1c0a <vListInitialise>
    21e8:	ce 01       	movw	r24, r28
    21ea:	41 96       	adiw	r24, 0x11	; 17
    21ec:	0e dd       	rcall	.-1508   	; 0x1c0a <vListInitialise>
    21ee:	0f 90       	pop	r0
    21f0:	0f be       	out	0x3f, r0	; 63
    21f2:	81 e0       	ldi	r24, 0x01	; 1
    21f4:	df 91       	pop	r29
    21f6:	cf 91       	pop	r28
    21f8:	08 95       	ret

000021fa <xQueueGenericCreate>:
    21fa:	0f 93       	push	r16
    21fc:	1f 93       	push	r17
    21fe:	cf 93       	push	r28
    2200:	df 93       	push	r29
    2202:	08 2f       	mov	r16, r24
    2204:	16 2f       	mov	r17, r22
    2206:	66 23       	and	r22, r22
    2208:	a9 f0       	breq	.+42     	; 0x2234 <xQueueGenericCreate+0x3a>
    220a:	86 9f       	mul	r24, r22
    220c:	c0 01       	movw	r24, r0
    220e:	11 24       	eor	r1, r1
    2210:	80 96       	adiw	r24, 0x20	; 32
    2212:	f3 de       	rcall	.-538    	; 0x1ffa <pvPortMalloc>
    2214:	ec 01       	movw	r28, r24
    2216:	00 97       	sbiw	r24, 0x00	; 0
    2218:	21 f4       	brne	.+8      	; 0x2222 <xQueueGenericCreate+0x28>
    221a:	12 c0       	rjmp	.+36     	; 0x2240 <xQueueGenericCreate+0x46>
    221c:	c8 83       	st	Y, r28
    221e:	d9 83       	std	Y+1, r29	; 0x01
    2220:	03 c0       	rjmp	.+6      	; 0x2228 <xQueueGenericCreate+0x2e>
    2222:	4f 96       	adiw	r24, 0x1f	; 31
    2224:	88 83       	st	Y, r24
    2226:	99 83       	std	Y+1, r25	; 0x01
    2228:	0b 8f       	std	Y+27, r16	; 0x1b
    222a:	1c 8f       	std	Y+28, r17	; 0x1c
    222c:	61 e0       	ldi	r22, 0x01	; 1
    222e:	ce 01       	movw	r24, r28
    2230:	ab df       	rcall	.-170    	; 0x2188 <xQueueGenericReset>
    2232:	06 c0       	rjmp	.+12     	; 0x2240 <xQueueGenericCreate+0x46>
    2234:	8f e1       	ldi	r24, 0x1F	; 31
    2236:	90 e0       	ldi	r25, 0x00	; 0
    2238:	e0 de       	rcall	.-576    	; 0x1ffa <pvPortMalloc>
    223a:	ec 01       	movw	r28, r24
    223c:	89 2b       	or	r24, r25
    223e:	71 f7       	brne	.-36     	; 0x221c <xQueueGenericCreate+0x22>
    2240:	ce 01       	movw	r24, r28
    2242:	df 91       	pop	r29
    2244:	cf 91       	pop	r28
    2246:	1f 91       	pop	r17
    2248:	0f 91       	pop	r16
    224a:	08 95       	ret

0000224c <xQueueGenericSend>:
    224c:	af 92       	push	r10
    224e:	bf 92       	push	r11
    2250:	cf 92       	push	r12
    2252:	df 92       	push	r13
    2254:	ef 92       	push	r14
    2256:	ff 92       	push	r15
    2258:	0f 93       	push	r16
    225a:	1f 93       	push	r17
    225c:	cf 93       	push	r28
    225e:	df 93       	push	r29
    2260:	cd b7       	in	r28, 0x3d	; 61
    2262:	de b7       	in	r29, 0x3e	; 62
    2264:	25 97       	sbiw	r28, 0x05	; 5
    2266:	cd bf       	out	0x3d, r28	; 61
    2268:	de bf       	out	0x3e, r29	; 62
    226a:	8c 01       	movw	r16, r24
    226c:	6b 01       	movw	r12, r22
    226e:	4c 83       	std	Y+4, r20	; 0x04
    2270:	5d 83       	std	Y+5, r21	; 0x05
    2272:	a2 2e       	mov	r10, r18
    2274:	b1 2c       	mov	r11, r1
    2276:	7c 01       	movw	r14, r24
    2278:	88 e0       	ldi	r24, 0x08	; 8
    227a:	e8 0e       	add	r14, r24
    227c:	f1 1c       	adc	r15, r1
    227e:	0f b6       	in	r0, 0x3f	; 63
    2280:	f8 94       	cli
    2282:	0f 92       	push	r0
    2284:	f8 01       	movw	r30, r16
    2286:	92 8d       	ldd	r25, Z+26	; 0x1a
    2288:	83 8d       	ldd	r24, Z+27	; 0x1b
    228a:	98 17       	cp	r25, r24
    228c:	18 f0       	brcs	.+6      	; 0x2294 <xQueueGenericSend+0x48>
    228e:	f2 e0       	ldi	r31, 0x02	; 2
    2290:	af 12       	cpse	r10, r31
    2292:	15 c0       	rjmp	.+42     	; 0x22be <xQueueGenericSend+0x72>
    2294:	4a 2d       	mov	r20, r10
    2296:	b6 01       	movw	r22, r12
    2298:	c8 01       	movw	r24, r16
    229a:	c9 de       	rcall	.-622    	; 0x202e <prvCopyDataToQueue>
    229c:	f8 01       	movw	r30, r16
    229e:	91 89       	ldd	r25, Z+17	; 0x11
    22a0:	99 23       	and	r25, r25
    22a2:	39 f0       	breq	.+14     	; 0x22b2 <xQueueGenericSend+0x66>
    22a4:	c8 01       	movw	r24, r16
    22a6:	41 96       	adiw	r24, 0x11	; 17
    22a8:	d2 d4       	rcall	.+2468   	; 0x2c4e <xTaskRemoveFromEventList>
    22aa:	81 30       	cpi	r24, 0x01	; 1
    22ac:	21 f4       	brne	.+8      	; 0x22b6 <xQueueGenericSend+0x6a>
    22ae:	f3 dd       	rcall	.-1050   	; 0x1e96 <vPortYield>
    22b0:	02 c0       	rjmp	.+4      	; 0x22b6 <xQueueGenericSend+0x6a>
    22b2:	81 11       	cpse	r24, r1
    22b4:	f0 dd       	rcall	.-1056   	; 0x1e96 <vPortYield>
    22b6:	0f 90       	pop	r0
    22b8:	0f be       	out	0x3f, r0	; 63
    22ba:	81 e0       	ldi	r24, 0x01	; 1
    22bc:	46 c0       	rjmp	.+140    	; 0x234a <xQueueGenericSend+0xfe>
    22be:	8c 81       	ldd	r24, Y+4	; 0x04
    22c0:	9d 81       	ldd	r25, Y+5	; 0x05
    22c2:	89 2b       	or	r24, r25
    22c4:	21 f4       	brne	.+8      	; 0x22ce <xQueueGenericSend+0x82>
    22c6:	0f 90       	pop	r0
    22c8:	0f be       	out	0x3f, r0	; 63
    22ca:	80 e0       	ldi	r24, 0x00	; 0
    22cc:	3e c0       	rjmp	.+124    	; 0x234a <xQueueGenericSend+0xfe>
    22ce:	b1 10       	cpse	r11, r1
    22d0:	05 c0       	rjmp	.+10     	; 0x22dc <xQueueGenericSend+0x90>
    22d2:	ce 01       	movw	r24, r28
    22d4:	01 96       	adiw	r24, 0x01	; 1
    22d6:	01 d5       	rcall	.+2562   	; 0x2cda <vTaskSetTimeOutState>
    22d8:	bb 24       	eor	r11, r11
    22da:	b3 94       	inc	r11
    22dc:	0f 90       	pop	r0
    22de:	0f be       	out	0x3f, r0	; 63
    22e0:	9a d2       	rcall	.+1332   	; 0x2816 <vTaskSuspendAll>
    22e2:	0f b6       	in	r0, 0x3f	; 63
    22e4:	f8 94       	cli
    22e6:	0f 92       	push	r0
    22e8:	f8 01       	movw	r30, r16
    22ea:	85 8d       	ldd	r24, Z+29	; 0x1d
    22ec:	8f 3f       	cpi	r24, 0xFF	; 255
    22ee:	09 f4       	brne	.+2      	; 0x22f2 <xQueueGenericSend+0xa6>
    22f0:	15 8e       	std	Z+29, r1	; 0x1d
    22f2:	f8 01       	movw	r30, r16
    22f4:	86 8d       	ldd	r24, Z+30	; 0x1e
    22f6:	8f 3f       	cpi	r24, 0xFF	; 255
    22f8:	09 f4       	brne	.+2      	; 0x22fc <xQueueGenericSend+0xb0>
    22fa:	16 8e       	std	Z+30, r1	; 0x1e
    22fc:	0f 90       	pop	r0
    22fe:	0f be       	out	0x3f, r0	; 63
    2300:	be 01       	movw	r22, r28
    2302:	6c 5f       	subi	r22, 0xFC	; 252
    2304:	7f 4f       	sbci	r23, 0xFF	; 255
    2306:	ce 01       	movw	r24, r28
    2308:	01 96       	adiw	r24, 0x01	; 1
    230a:	f2 d4       	rcall	.+2532   	; 0x2cf0 <xTaskCheckForTimeOut>
    230c:	81 11       	cpse	r24, r1
    230e:	19 c0       	rjmp	.+50     	; 0x2342 <xQueueGenericSend+0xf6>
    2310:	0f b6       	in	r0, 0x3f	; 63
    2312:	f8 94       	cli
    2314:	0f 92       	push	r0
    2316:	f8 01       	movw	r30, r16
    2318:	92 8d       	ldd	r25, Z+26	; 0x1a
    231a:	0f 90       	pop	r0
    231c:	0f be       	out	0x3f, r0	; 63
    231e:	83 8d       	ldd	r24, Z+27	; 0x1b
    2320:	98 13       	cpse	r25, r24
    2322:	0b c0       	rjmp	.+22     	; 0x233a <xQueueGenericSend+0xee>
    2324:	6c 81       	ldd	r22, Y+4	; 0x04
    2326:	7d 81       	ldd	r23, Y+5	; 0x05
    2328:	c7 01       	movw	r24, r14
    232a:	5d d4       	rcall	.+2234   	; 0x2be6 <vTaskPlaceOnEventList>
    232c:	c8 01       	movw	r24, r16
    232e:	e4 de       	rcall	.-568    	; 0x20f8 <prvUnlockQueue>
    2330:	55 d3       	rcall	.+1706   	; 0x29dc <xTaskResumeAll>
    2332:	81 11       	cpse	r24, r1
    2334:	a4 cf       	rjmp	.-184    	; 0x227e <xQueueGenericSend+0x32>
    2336:	af dd       	rcall	.-1186   	; 0x1e96 <vPortYield>
    2338:	a2 cf       	rjmp	.-188    	; 0x227e <xQueueGenericSend+0x32>
    233a:	c8 01       	movw	r24, r16
    233c:	dd de       	rcall	.-582    	; 0x20f8 <prvUnlockQueue>
    233e:	4e d3       	rcall	.+1692   	; 0x29dc <xTaskResumeAll>
    2340:	9e cf       	rjmp	.-196    	; 0x227e <xQueueGenericSend+0x32>
    2342:	c8 01       	movw	r24, r16
    2344:	d9 de       	rcall	.-590    	; 0x20f8 <prvUnlockQueue>
    2346:	4a d3       	rcall	.+1684   	; 0x29dc <xTaskResumeAll>
    2348:	80 e0       	ldi	r24, 0x00	; 0
    234a:	25 96       	adiw	r28, 0x05	; 5
    234c:	cd bf       	out	0x3d, r28	; 61
    234e:	de bf       	out	0x3e, r29	; 62
    2350:	df 91       	pop	r29
    2352:	cf 91       	pop	r28
    2354:	1f 91       	pop	r17
    2356:	0f 91       	pop	r16
    2358:	ff 90       	pop	r15
    235a:	ef 90       	pop	r14
    235c:	df 90       	pop	r13
    235e:	cf 90       	pop	r12
    2360:	bf 90       	pop	r11
    2362:	af 90       	pop	r10
    2364:	08 95       	ret

00002366 <xQueueGenericSendFromISR>:
    2366:	0f 93       	push	r16
    2368:	1f 93       	push	r17
    236a:	cf 93       	push	r28
    236c:	df 93       	push	r29
    236e:	fa 01       	movw	r30, r20
    2370:	dc 01       	movw	r26, r24
    2372:	5a 96       	adiw	r26, 0x1a	; 26
    2374:	5c 91       	ld	r21, X
    2376:	5a 97       	sbiw	r26, 0x1a	; 26
    2378:	5b 96       	adiw	r26, 0x1b	; 27
    237a:	3c 91       	ld	r19, X
    237c:	53 17       	cp	r21, r19
    237e:	10 f0       	brcs	.+4      	; 0x2384 <xQueueGenericSendFromISR+0x1e>
    2380:	22 30       	cpi	r18, 0x02	; 2
    2382:	d9 f4       	brne	.+54     	; 0x23ba <xQueueGenericSendFromISR+0x54>
    2384:	42 2f       	mov	r20, r18
    2386:	8f 01       	movw	r16, r30
    2388:	ec 01       	movw	r28, r24
    238a:	51 de       	rcall	.-862    	; 0x202e <prvCopyDataToQueue>
    238c:	8e 8d       	ldd	r24, Y+30	; 0x1e
    238e:	8f 3f       	cpi	r24, 0xFF	; 255
    2390:	79 f4       	brne	.+30     	; 0x23b0 <xQueueGenericSendFromISR+0x4a>
    2392:	89 89       	ldd	r24, Y+17	; 0x11
    2394:	88 23       	and	r24, r24
    2396:	99 f0       	breq	.+38     	; 0x23be <xQueueGenericSendFromISR+0x58>
    2398:	ce 01       	movw	r24, r28
    239a:	41 96       	adiw	r24, 0x11	; 17
    239c:	58 d4       	rcall	.+2224   	; 0x2c4e <xTaskRemoveFromEventList>
    239e:	88 23       	and	r24, r24
    23a0:	81 f0       	breq	.+32     	; 0x23c2 <xQueueGenericSendFromISR+0x5c>
    23a2:	01 15       	cp	r16, r1
    23a4:	11 05       	cpc	r17, r1
    23a6:	79 f0       	breq	.+30     	; 0x23c6 <xQueueGenericSendFromISR+0x60>
    23a8:	81 e0       	ldi	r24, 0x01	; 1
    23aa:	f8 01       	movw	r30, r16
    23ac:	80 83       	st	Z, r24
    23ae:	0c c0       	rjmp	.+24     	; 0x23c8 <xQueueGenericSendFromISR+0x62>
    23b0:	8e 8d       	ldd	r24, Y+30	; 0x1e
    23b2:	8f 5f       	subi	r24, 0xFF	; 255
    23b4:	8e 8f       	std	Y+30, r24	; 0x1e
    23b6:	81 e0       	ldi	r24, 0x01	; 1
    23b8:	07 c0       	rjmp	.+14     	; 0x23c8 <xQueueGenericSendFromISR+0x62>
    23ba:	80 e0       	ldi	r24, 0x00	; 0
    23bc:	05 c0       	rjmp	.+10     	; 0x23c8 <xQueueGenericSendFromISR+0x62>
    23be:	81 e0       	ldi	r24, 0x01	; 1
    23c0:	03 c0       	rjmp	.+6      	; 0x23c8 <xQueueGenericSendFromISR+0x62>
    23c2:	81 e0       	ldi	r24, 0x01	; 1
    23c4:	01 c0       	rjmp	.+2      	; 0x23c8 <xQueueGenericSendFromISR+0x62>
    23c6:	81 e0       	ldi	r24, 0x01	; 1
    23c8:	df 91       	pop	r29
    23ca:	cf 91       	pop	r28
    23cc:	1f 91       	pop	r17
    23ce:	0f 91       	pop	r16
    23d0:	08 95       	ret

000023d2 <xQueueGenericReceive>:
    23d2:	af 92       	push	r10
    23d4:	bf 92       	push	r11
    23d6:	cf 92       	push	r12
    23d8:	df 92       	push	r13
    23da:	ef 92       	push	r14
    23dc:	ff 92       	push	r15
    23de:	0f 93       	push	r16
    23e0:	1f 93       	push	r17
    23e2:	cf 93       	push	r28
    23e4:	df 93       	push	r29
    23e6:	cd b7       	in	r28, 0x3d	; 61
    23e8:	de b7       	in	r29, 0x3e	; 62
    23ea:	25 97       	sbiw	r28, 0x05	; 5
    23ec:	cd bf       	out	0x3d, r28	; 61
    23ee:	de bf       	out	0x3e, r29	; 62
    23f0:	8c 01       	movw	r16, r24
    23f2:	6b 01       	movw	r12, r22
    23f4:	4c 83       	std	Y+4, r20	; 0x04
    23f6:	5d 83       	std	Y+5, r21	; 0x05
    23f8:	a2 2e       	mov	r10, r18
    23fa:	b1 2c       	mov	r11, r1
    23fc:	7c 01       	movw	r14, r24
    23fe:	81 e1       	ldi	r24, 0x11	; 17
    2400:	e8 0e       	add	r14, r24
    2402:	f1 1c       	adc	r15, r1
    2404:	0f b6       	in	r0, 0x3f	; 63
    2406:	f8 94       	cli
    2408:	0f 92       	push	r0
    240a:	f8 01       	movw	r30, r16
    240c:	82 8d       	ldd	r24, Z+26	; 0x1a
    240e:	88 23       	and	r24, r24
    2410:	21 f1       	breq	.+72     	; 0x245a <xQueueGenericReceive+0x88>
    2412:	e6 80       	ldd	r14, Z+6	; 0x06
    2414:	f7 80       	ldd	r15, Z+7	; 0x07
    2416:	b6 01       	movw	r22, r12
    2418:	c8 01       	movw	r24, r16
    241a:	54 de       	rcall	.-856    	; 0x20c4 <prvCopyDataFromQueue>
    241c:	a1 10       	cpse	r10, r1
    241e:	0e c0       	rjmp	.+28     	; 0x243c <xQueueGenericReceive+0x6a>
    2420:	f8 01       	movw	r30, r16
    2422:	82 8d       	ldd	r24, Z+26	; 0x1a
    2424:	81 50       	subi	r24, 0x01	; 1
    2426:	82 8f       	std	Z+26, r24	; 0x1a
    2428:	80 85       	ldd	r24, Z+8	; 0x08
    242a:	88 23       	and	r24, r24
    242c:	91 f0       	breq	.+36     	; 0x2452 <xQueueGenericReceive+0x80>
    242e:	c8 01       	movw	r24, r16
    2430:	08 96       	adiw	r24, 0x08	; 8
    2432:	0d d4       	rcall	.+2074   	; 0x2c4e <xTaskRemoveFromEventList>
    2434:	81 30       	cpi	r24, 0x01	; 1
    2436:	69 f4       	brne	.+26     	; 0x2452 <xQueueGenericReceive+0x80>
    2438:	2e dd       	rcall	.-1444   	; 0x1e96 <vPortYield>
    243a:	0b c0       	rjmp	.+22     	; 0x2452 <xQueueGenericReceive+0x80>
    243c:	f8 01       	movw	r30, r16
    243e:	e6 82       	std	Z+6, r14	; 0x06
    2440:	f7 82       	std	Z+7, r15	; 0x07
    2442:	81 89       	ldd	r24, Z+17	; 0x11
    2444:	88 23       	and	r24, r24
    2446:	29 f0       	breq	.+10     	; 0x2452 <xQueueGenericReceive+0x80>
    2448:	c8 01       	movw	r24, r16
    244a:	41 96       	adiw	r24, 0x11	; 17
    244c:	00 d4       	rcall	.+2048   	; 0x2c4e <xTaskRemoveFromEventList>
    244e:	81 11       	cpse	r24, r1
    2450:	22 dd       	rcall	.-1468   	; 0x1e96 <vPortYield>
    2452:	0f 90       	pop	r0
    2454:	0f be       	out	0x3f, r0	; 63
    2456:	81 e0       	ldi	r24, 0x01	; 1
    2458:	45 c0       	rjmp	.+138    	; 0x24e4 <xQueueGenericReceive+0x112>
    245a:	8c 81       	ldd	r24, Y+4	; 0x04
    245c:	9d 81       	ldd	r25, Y+5	; 0x05
    245e:	89 2b       	or	r24, r25
    2460:	21 f4       	brne	.+8      	; 0x246a <xQueueGenericReceive+0x98>
    2462:	0f 90       	pop	r0
    2464:	0f be       	out	0x3f, r0	; 63
    2466:	80 e0       	ldi	r24, 0x00	; 0
    2468:	3d c0       	rjmp	.+122    	; 0x24e4 <xQueueGenericReceive+0x112>
    246a:	b1 10       	cpse	r11, r1
    246c:	05 c0       	rjmp	.+10     	; 0x2478 <xQueueGenericReceive+0xa6>
    246e:	ce 01       	movw	r24, r28
    2470:	01 96       	adiw	r24, 0x01	; 1
    2472:	33 d4       	rcall	.+2150   	; 0x2cda <vTaskSetTimeOutState>
    2474:	bb 24       	eor	r11, r11
    2476:	b3 94       	inc	r11
    2478:	0f 90       	pop	r0
    247a:	0f be       	out	0x3f, r0	; 63
    247c:	cc d1       	rcall	.+920    	; 0x2816 <vTaskSuspendAll>
    247e:	0f b6       	in	r0, 0x3f	; 63
    2480:	f8 94       	cli
    2482:	0f 92       	push	r0
    2484:	f8 01       	movw	r30, r16
    2486:	85 8d       	ldd	r24, Z+29	; 0x1d
    2488:	8f 3f       	cpi	r24, 0xFF	; 255
    248a:	09 f4       	brne	.+2      	; 0x248e <xQueueGenericReceive+0xbc>
    248c:	15 8e       	std	Z+29, r1	; 0x1d
    248e:	f8 01       	movw	r30, r16
    2490:	86 8d       	ldd	r24, Z+30	; 0x1e
    2492:	8f 3f       	cpi	r24, 0xFF	; 255
    2494:	09 f4       	brne	.+2      	; 0x2498 <xQueueGenericReceive+0xc6>
    2496:	16 8e       	std	Z+30, r1	; 0x1e
    2498:	0f 90       	pop	r0
    249a:	0f be       	out	0x3f, r0	; 63
    249c:	be 01       	movw	r22, r28
    249e:	6c 5f       	subi	r22, 0xFC	; 252
    24a0:	7f 4f       	sbci	r23, 0xFF	; 255
    24a2:	ce 01       	movw	r24, r28
    24a4:	01 96       	adiw	r24, 0x01	; 1
    24a6:	24 d4       	rcall	.+2120   	; 0x2cf0 <xTaskCheckForTimeOut>
    24a8:	81 11       	cpse	r24, r1
    24aa:	18 c0       	rjmp	.+48     	; 0x24dc <xQueueGenericReceive+0x10a>
    24ac:	0f b6       	in	r0, 0x3f	; 63
    24ae:	f8 94       	cli
    24b0:	0f 92       	push	r0
    24b2:	f8 01       	movw	r30, r16
    24b4:	82 8d       	ldd	r24, Z+26	; 0x1a
    24b6:	0f 90       	pop	r0
    24b8:	0f be       	out	0x3f, r0	; 63
    24ba:	81 11       	cpse	r24, r1
    24bc:	0b c0       	rjmp	.+22     	; 0x24d4 <xQueueGenericReceive+0x102>
    24be:	6c 81       	ldd	r22, Y+4	; 0x04
    24c0:	7d 81       	ldd	r23, Y+5	; 0x05
    24c2:	c7 01       	movw	r24, r14
    24c4:	90 d3       	rcall	.+1824   	; 0x2be6 <vTaskPlaceOnEventList>
    24c6:	c8 01       	movw	r24, r16
    24c8:	17 de       	rcall	.-978    	; 0x20f8 <prvUnlockQueue>
    24ca:	88 d2       	rcall	.+1296   	; 0x29dc <xTaskResumeAll>
    24cc:	81 11       	cpse	r24, r1
    24ce:	9a cf       	rjmp	.-204    	; 0x2404 <xQueueGenericReceive+0x32>
    24d0:	e2 dc       	rcall	.-1596   	; 0x1e96 <vPortYield>
    24d2:	98 cf       	rjmp	.-208    	; 0x2404 <xQueueGenericReceive+0x32>
    24d4:	c8 01       	movw	r24, r16
    24d6:	10 de       	rcall	.-992    	; 0x20f8 <prvUnlockQueue>
    24d8:	81 d2       	rcall	.+1282   	; 0x29dc <xTaskResumeAll>
    24da:	94 cf       	rjmp	.-216    	; 0x2404 <xQueueGenericReceive+0x32>
    24dc:	c8 01       	movw	r24, r16
    24de:	0c de       	rcall	.-1000   	; 0x20f8 <prvUnlockQueue>
    24e0:	7d d2       	rcall	.+1274   	; 0x29dc <xTaskResumeAll>
    24e2:	80 e0       	ldi	r24, 0x00	; 0
    24e4:	25 96       	adiw	r28, 0x05	; 5
    24e6:	cd bf       	out	0x3d, r28	; 61
    24e8:	de bf       	out	0x3e, r29	; 62
    24ea:	df 91       	pop	r29
    24ec:	cf 91       	pop	r28
    24ee:	1f 91       	pop	r17
    24f0:	0f 91       	pop	r16
    24f2:	ff 90       	pop	r15
    24f4:	ef 90       	pop	r14
    24f6:	df 90       	pop	r13
    24f8:	cf 90       	pop	r12
    24fa:	bf 90       	pop	r11
    24fc:	af 90       	pop	r10
    24fe:	08 95       	ret

00002500 <vQueueWaitForMessageRestricted>:
    2500:	cf 93       	push	r28
    2502:	df 93       	push	r29
    2504:	ec 01       	movw	r28, r24
    2506:	0f b6       	in	r0, 0x3f	; 63
    2508:	f8 94       	cli
    250a:	0f 92       	push	r0
    250c:	8d 8d       	ldd	r24, Y+29	; 0x1d
    250e:	8f 3f       	cpi	r24, 0xFF	; 255
    2510:	09 f4       	brne	.+2      	; 0x2514 <vQueueWaitForMessageRestricted+0x14>
    2512:	1d 8e       	std	Y+29, r1	; 0x1d
    2514:	8e 8d       	ldd	r24, Y+30	; 0x1e
    2516:	8f 3f       	cpi	r24, 0xFF	; 255
    2518:	09 f4       	brne	.+2      	; 0x251c <vQueueWaitForMessageRestricted+0x1c>
    251a:	1e 8e       	std	Y+30, r1	; 0x1e
    251c:	0f 90       	pop	r0
    251e:	0f be       	out	0x3f, r0	; 63
    2520:	8a 8d       	ldd	r24, Y+26	; 0x1a
    2522:	81 11       	cpse	r24, r1
    2524:	03 c0       	rjmp	.+6      	; 0x252c <vQueueWaitForMessageRestricted+0x2c>
    2526:	ce 01       	movw	r24, r28
    2528:	41 96       	adiw	r24, 0x11	; 17
    252a:	77 d3       	rcall	.+1774   	; 0x2c1a <vTaskPlaceOnEventListRestricted>
    252c:	ce 01       	movw	r24, r28
    252e:	e4 dd       	rcall	.-1080   	; 0x20f8 <prvUnlockQueue>
    2530:	df 91       	pop	r29
    2532:	cf 91       	pop	r28
    2534:	08 95       	ret

00002536 <prvIdleTask>:
    2536:	cd e7       	ldi	r28, 0x7D	; 125
    2538:	d2 e2       	ldi	r29, 0x22	; 34
    253a:	88 81       	ld	r24, Y
    253c:	82 30       	cpi	r24, 0x02	; 2
    253e:	f0 f3       	brcs	.-4      	; 0x253c <prvIdleTask+0x6>
    2540:	aa dc       	rcall	.-1708   	; 0x1e96 <vPortYield>
    2542:	fb cf       	rjmp	.-10     	; 0x253a <prvIdleTask+0x4>

00002544 <prvAddCurrentTaskToDelayedList>:
    2544:	cf 93       	push	r28
    2546:	df 93       	push	r29
    2548:	ec 01       	movw	r28, r24
    254a:	e0 91 aa 22 	lds	r30, 0x22AA	; 0x8022aa <pxCurrentTCB>
    254e:	f0 91 ab 22 	lds	r31, 0x22AB	; 0x8022ab <pxCurrentTCB+0x1>
    2552:	82 83       	std	Z+2, r24	; 0x02
    2554:	93 83       	std	Z+3, r25	; 0x03
    2556:	80 91 5b 22 	lds	r24, 0x225B	; 0x80225b <xTickCount>
    255a:	90 91 5c 22 	lds	r25, 0x225C	; 0x80225c <xTickCount+0x1>
    255e:	c8 17       	cp	r28, r24
    2560:	d9 07       	cpc	r29, r25
    2562:	60 f4       	brcc	.+24     	; 0x257c <prvAddCurrentTaskToDelayedList+0x38>
    2564:	60 91 aa 22 	lds	r22, 0x22AA	; 0x8022aa <pxCurrentTCB>
    2568:	70 91 ab 22 	lds	r23, 0x22AB	; 0x8022ab <pxCurrentTCB+0x1>
    256c:	80 91 67 22 	lds	r24, 0x2267	; 0x802267 <pxOverflowDelayedTaskList>
    2570:	90 91 68 22 	lds	r25, 0x2268	; 0x802268 <pxOverflowDelayedTaskList+0x1>
    2574:	6e 5f       	subi	r22, 0xFE	; 254
    2576:	7f 4f       	sbci	r23, 0xFF	; 255
    2578:	7b db       	rcall	.-2314   	; 0x1c70 <vListInsert>
    257a:	16 c0       	rjmp	.+44     	; 0x25a8 <prvAddCurrentTaskToDelayedList+0x64>
    257c:	60 91 aa 22 	lds	r22, 0x22AA	; 0x8022aa <pxCurrentTCB>
    2580:	70 91 ab 22 	lds	r23, 0x22AB	; 0x8022ab <pxCurrentTCB+0x1>
    2584:	80 91 69 22 	lds	r24, 0x2269	; 0x802269 <pxDelayedTaskList>
    2588:	90 91 6a 22 	lds	r25, 0x226A	; 0x80226a <pxDelayedTaskList+0x1>
    258c:	6e 5f       	subi	r22, 0xFE	; 254
    258e:	7f 4f       	sbci	r23, 0xFF	; 255
    2590:	6f db       	rcall	.-2338   	; 0x1c70 <vListInsert>
    2592:	80 91 53 22 	lds	r24, 0x2253	; 0x802253 <xNextTaskUnblockTime>
    2596:	90 91 54 22 	lds	r25, 0x2254	; 0x802254 <xNextTaskUnblockTime+0x1>
    259a:	c8 17       	cp	r28, r24
    259c:	d9 07       	cpc	r29, r25
    259e:	20 f4       	brcc	.+8      	; 0x25a8 <prvAddCurrentTaskToDelayedList+0x64>
    25a0:	c0 93 53 22 	sts	0x2253, r28	; 0x802253 <xNextTaskUnblockTime>
    25a4:	d0 93 54 22 	sts	0x2254, r29	; 0x802254 <xNextTaskUnblockTime+0x1>
    25a8:	df 91       	pop	r29
    25aa:	cf 91       	pop	r28
    25ac:	08 95       	ret

000025ae <xTaskGenericCreate>:
    25ae:	4f 92       	push	r4
    25b0:	5f 92       	push	r5
    25b2:	6f 92       	push	r6
    25b4:	7f 92       	push	r7
    25b6:	8f 92       	push	r8
    25b8:	9f 92       	push	r9
    25ba:	af 92       	push	r10
    25bc:	bf 92       	push	r11
    25be:	cf 92       	push	r12
    25c0:	df 92       	push	r13
    25c2:	ef 92       	push	r14
    25c4:	ff 92       	push	r15
    25c6:	0f 93       	push	r16
    25c8:	1f 93       	push	r17
    25ca:	cf 93       	push	r28
    25cc:	df 93       	push	r29
    25ce:	4c 01       	movw	r8, r24
    25d0:	eb 01       	movw	r28, r22
    25d2:	5a 01       	movw	r10, r20
    25d4:	29 01       	movw	r4, r18
    25d6:	c1 14       	cp	r12, r1
    25d8:	d1 04       	cpc	r13, r1
    25da:	31 f4       	brne	.+12     	; 0x25e8 <xTaskGenericCreate+0x3a>
    25dc:	ca 01       	movw	r24, r20
    25de:	0d dd       	rcall	.-1510   	; 0x1ffa <pvPortMalloc>
    25e0:	6c 01       	movw	r12, r24
    25e2:	89 2b       	or	r24, r25
    25e4:	09 f4       	brne	.+2      	; 0x25e8 <xTaskGenericCreate+0x3a>
    25e6:	d2 c0       	rjmp	.+420    	; 0x278c <xTaskGenericCreate+0x1de>
    25e8:	86 e2       	ldi	r24, 0x26	; 38
    25ea:	90 e0       	ldi	r25, 0x00	; 0
    25ec:	06 dd       	rcall	.-1524   	; 0x1ffa <pvPortMalloc>
    25ee:	3c 01       	movw	r6, r24
    25f0:	00 97       	sbiw	r24, 0x00	; 0
    25f2:	79 f0       	breq	.+30     	; 0x2612 <xTaskGenericCreate+0x64>
    25f4:	fc 01       	movw	r30, r24
    25f6:	c7 8a       	std	Z+23, r12	; 0x17
    25f8:	d0 8e       	std	Z+24, r13	; 0x18
    25fa:	f1 e0       	ldi	r31, 0x01	; 1
    25fc:	af 1a       	sub	r10, r31
    25fe:	b1 08       	sbc	r11, r1
    2600:	ca 0c       	add	r12, r10
    2602:	db 1c       	adc	r13, r11
    2604:	88 81       	ld	r24, Y
    2606:	f3 01       	movw	r30, r6
    2608:	81 8f       	std	Z+25, r24	; 0x19
    260a:	88 81       	ld	r24, Y
    260c:	81 11       	cpse	r24, r1
    260e:	04 c0       	rjmp	.+8      	; 0x2618 <xTaskGenericCreate+0x6a>
    2610:	13 c0       	rjmp	.+38     	; 0x2638 <xTaskGenericCreate+0x8a>
    2612:	c6 01       	movw	r24, r12
    2614:	ff dc       	rcall	.-1538   	; 0x2014 <vPortFree>
    2616:	ba c0       	rjmp	.+372    	; 0x278c <xTaskGenericCreate+0x1de>
    2618:	d3 01       	movw	r26, r6
    261a:	5a 96       	adiw	r26, 0x1a	; 26
    261c:	fe 01       	movw	r30, r28
    261e:	31 96       	adiw	r30, 0x01	; 1
    2620:	9e 01       	movw	r18, r28
    2622:	28 5f       	subi	r18, 0xF8	; 248
    2624:	3f 4f       	sbci	r19, 0xFF	; 255
    2626:	ef 01       	movw	r28, r30
    2628:	81 91       	ld	r24, Z+
    262a:	8d 93       	st	X+, r24
    262c:	88 81       	ld	r24, Y
    262e:	88 23       	and	r24, r24
    2630:	19 f0       	breq	.+6      	; 0x2638 <xTaskGenericCreate+0x8a>
    2632:	2e 17       	cp	r18, r30
    2634:	3f 07       	cpc	r19, r31
    2636:	b9 f7       	brne	.-18     	; 0x2626 <xTaskGenericCreate+0x78>
    2638:	f3 01       	movw	r30, r6
    263a:	10 a2       	std	Z+32, r1	; 0x20
    263c:	10 2f       	mov	r17, r16
    263e:	05 30       	cpi	r16, 0x05	; 5
    2640:	08 f0       	brcs	.+2      	; 0x2644 <xTaskGenericCreate+0x96>
    2642:	14 e0       	ldi	r17, 0x04	; 4
    2644:	f3 01       	movw	r30, r6
    2646:	16 8b       	std	Z+22, r17	; 0x16
    2648:	e3 01       	movw	r28, r6
    264a:	22 96       	adiw	r28, 0x02	; 2
    264c:	ce 01       	movw	r24, r28
    264e:	eb da       	rcall	.-2602   	; 0x1c26 <vListInitialiseItem>
    2650:	c3 01       	movw	r24, r6
    2652:	0c 96       	adiw	r24, 0x0c	; 12
    2654:	e8 da       	rcall	.-2608   	; 0x1c26 <vListInitialiseItem>
    2656:	f3 01       	movw	r30, r6
    2658:	60 86       	std	Z+8, r6	; 0x08
    265a:	71 86       	std	Z+9, r7	; 0x09
    265c:	85 e0       	ldi	r24, 0x05	; 5
    265e:	90 e0       	ldi	r25, 0x00	; 0
    2660:	81 1b       	sub	r24, r17
    2662:	91 09       	sbc	r25, r1
    2664:	84 87       	std	Z+12, r24	; 0x0c
    2666:	95 87       	std	Z+13, r25	; 0x0d
    2668:	62 8a       	std	Z+18, r6	; 0x12
    266a:	73 8a       	std	Z+19, r7	; 0x13
    266c:	11 a2       	std	Z+33, r1	; 0x21
    266e:	12 a2       	std	Z+34, r1	; 0x22
    2670:	13 a2       	std	Z+35, r1	; 0x23
    2672:	14 a2       	std	Z+36, r1	; 0x24
    2674:	15 a2       	std	Z+37, r1	; 0x25
    2676:	a2 01       	movw	r20, r4
    2678:	b4 01       	movw	r22, r8
    267a:	c6 01       	movw	r24, r12
    267c:	50 db       	rcall	.-2400   	; 0x1d1e <pxPortInitialiseStack>
    267e:	f3 01       	movw	r30, r6
    2680:	80 83       	st	Z, r24
    2682:	91 83       	std	Z+1, r25	; 0x01
    2684:	e1 14       	cp	r14, r1
    2686:	f1 04       	cpc	r15, r1
    2688:	19 f0       	breq	.+6      	; 0x2690 <xTaskGenericCreate+0xe2>
    268a:	f7 01       	movw	r30, r14
    268c:	60 82       	st	Z, r6
    268e:	71 82       	std	Z+1, r7	; 0x01
    2690:	0f b6       	in	r0, 0x3f	; 63
    2692:	f8 94       	cli
    2694:	0f 92       	push	r0
    2696:	80 91 5d 22 	lds	r24, 0x225D	; 0x80225d <uxCurrentNumberOfTasks>
    269a:	8f 5f       	subi	r24, 0xFF	; 255
    269c:	80 93 5d 22 	sts	0x225D, r24	; 0x80225d <uxCurrentNumberOfTasks>
    26a0:	80 91 aa 22 	lds	r24, 0x22AA	; 0x8022aa <pxCurrentTCB>
    26a4:	90 91 ab 22 	lds	r25, 0x22AB	; 0x8022ab <pxCurrentTCB+0x1>
    26a8:	89 2b       	or	r24, r25
    26aa:	91 f5       	brne	.+100    	; 0x2710 <xTaskGenericCreate+0x162>
    26ac:	60 92 aa 22 	sts	0x22AA, r6	; 0x8022aa <pxCurrentTCB>
    26b0:	70 92 ab 22 	sts	0x22AB, r7	; 0x8022ab <pxCurrentTCB+0x1>
    26b4:	80 91 5d 22 	lds	r24, 0x225D	; 0x80225d <uxCurrentNumberOfTasks>
    26b8:	81 30       	cpi	r24, 0x01	; 1
    26ba:	c9 f5       	brne	.+114    	; 0x272e <xTaskGenericCreate+0x180>
    26bc:	0f 2e       	mov	r0, r31
    26be:	fd e7       	ldi	r31, 0x7D	; 125
    26c0:	ef 2e       	mov	r14, r31
    26c2:	f2 e2       	ldi	r31, 0x22	; 34
    26c4:	ff 2e       	mov	r15, r31
    26c6:	f0 2d       	mov	r31, r0
    26c8:	0f 2e       	mov	r0, r31
    26ca:	fa ea       	ldi	r31, 0xAA	; 170
    26cc:	cf 2e       	mov	r12, r31
    26ce:	f2 e2       	ldi	r31, 0x22	; 34
    26d0:	df 2e       	mov	r13, r31
    26d2:	f0 2d       	mov	r31, r0
    26d4:	c7 01       	movw	r24, r14
    26d6:	99 da       	rcall	.-2766   	; 0x1c0a <vListInitialise>
    26d8:	f9 e0       	ldi	r31, 0x09	; 9
    26da:	ef 0e       	add	r14, r31
    26dc:	f1 1c       	adc	r15, r1
    26de:	ec 14       	cp	r14, r12
    26e0:	fd 04       	cpc	r15, r13
    26e2:	c1 f7       	brne	.-16     	; 0x26d4 <xTaskGenericCreate+0x126>
    26e4:	84 e7       	ldi	r24, 0x74	; 116
    26e6:	92 e2       	ldi	r25, 0x22	; 34
    26e8:	90 da       	rcall	.-2784   	; 0x1c0a <vListInitialise>
    26ea:	8b e6       	ldi	r24, 0x6B	; 107
    26ec:	92 e2       	ldi	r25, 0x22	; 34
    26ee:	8d da       	rcall	.-2790   	; 0x1c0a <vListInitialise>
    26f0:	8e e5       	ldi	r24, 0x5E	; 94
    26f2:	92 e2       	ldi	r25, 0x22	; 34
    26f4:	8a da       	rcall	.-2796   	; 0x1c0a <vListInitialise>
    26f6:	84 e7       	ldi	r24, 0x74	; 116
    26f8:	92 e2       	ldi	r25, 0x22	; 34
    26fa:	80 93 69 22 	sts	0x2269, r24	; 0x802269 <pxDelayedTaskList>
    26fe:	90 93 6a 22 	sts	0x226A, r25	; 0x80226a <pxDelayedTaskList+0x1>
    2702:	8b e6       	ldi	r24, 0x6B	; 107
    2704:	92 e2       	ldi	r25, 0x22	; 34
    2706:	80 93 67 22 	sts	0x2267, r24	; 0x802267 <pxOverflowDelayedTaskList>
    270a:	90 93 68 22 	sts	0x2268, r25	; 0x802268 <pxOverflowDelayedTaskList+0x1>
    270e:	0f c0       	rjmp	.+30     	; 0x272e <xTaskGenericCreate+0x180>
    2710:	80 91 59 22 	lds	r24, 0x2259	; 0x802259 <xSchedulerRunning>
    2714:	81 11       	cpse	r24, r1
    2716:	0b c0       	rjmp	.+22     	; 0x272e <xTaskGenericCreate+0x180>
    2718:	e0 91 aa 22 	lds	r30, 0x22AA	; 0x8022aa <pxCurrentTCB>
    271c:	f0 91 ab 22 	lds	r31, 0x22AB	; 0x8022ab <pxCurrentTCB+0x1>
    2720:	86 89       	ldd	r24, Z+22	; 0x16
    2722:	08 17       	cp	r16, r24
    2724:	20 f0       	brcs	.+8      	; 0x272e <xTaskGenericCreate+0x180>
    2726:	60 92 aa 22 	sts	0x22AA, r6	; 0x8022aa <pxCurrentTCB>
    272a:	70 92 ab 22 	sts	0x22AB, r7	; 0x8022ab <pxCurrentTCB+0x1>
    272e:	80 91 55 22 	lds	r24, 0x2255	; 0x802255 <uxTaskNumber>
    2732:	8f 5f       	subi	r24, 0xFF	; 255
    2734:	80 93 55 22 	sts	0x2255, r24	; 0x802255 <uxTaskNumber>
    2738:	f3 01       	movw	r30, r6
    273a:	86 89       	ldd	r24, Z+22	; 0x16
    273c:	90 91 5a 22 	lds	r25, 0x225A	; 0x80225a <uxTopReadyPriority>
    2740:	98 17       	cp	r25, r24
    2742:	10 f4       	brcc	.+4      	; 0x2748 <xTaskGenericCreate+0x19a>
    2744:	80 93 5a 22 	sts	0x225A, r24	; 0x80225a <uxTopReadyPriority>
    2748:	90 e0       	ldi	r25, 0x00	; 0
    274a:	9c 01       	movw	r18, r24
    274c:	22 0f       	add	r18, r18
    274e:	33 1f       	adc	r19, r19
    2750:	22 0f       	add	r18, r18
    2752:	33 1f       	adc	r19, r19
    2754:	22 0f       	add	r18, r18
    2756:	33 1f       	adc	r19, r19
    2758:	82 0f       	add	r24, r18
    275a:	93 1f       	adc	r25, r19
    275c:	be 01       	movw	r22, r28
    275e:	83 58       	subi	r24, 0x83	; 131
    2760:	9d 4d       	sbci	r25, 0xDD	; 221
    2762:	65 da       	rcall	.-2870   	; 0x1c2e <vListInsertEnd>
    2764:	0f 90       	pop	r0
    2766:	0f be       	out	0x3f, r0	; 63
    2768:	80 91 59 22 	lds	r24, 0x2259	; 0x802259 <xSchedulerRunning>
    276c:	88 23       	and	r24, r24
    276e:	51 f0       	breq	.+20     	; 0x2784 <xTaskGenericCreate+0x1d6>
    2770:	e0 91 aa 22 	lds	r30, 0x22AA	; 0x8022aa <pxCurrentTCB>
    2774:	f0 91 ab 22 	lds	r31, 0x22AB	; 0x8022ab <pxCurrentTCB+0x1>
    2778:	86 89       	ldd	r24, Z+22	; 0x16
    277a:	80 17       	cp	r24, r16
    277c:	28 f4       	brcc	.+10     	; 0x2788 <xTaskGenericCreate+0x1da>
    277e:	8b db       	rcall	.-2282   	; 0x1e96 <vPortYield>
    2780:	81 e0       	ldi	r24, 0x01	; 1
    2782:	05 c0       	rjmp	.+10     	; 0x278e <xTaskGenericCreate+0x1e0>
    2784:	81 e0       	ldi	r24, 0x01	; 1
    2786:	03 c0       	rjmp	.+6      	; 0x278e <xTaskGenericCreate+0x1e0>
    2788:	81 e0       	ldi	r24, 0x01	; 1
    278a:	01 c0       	rjmp	.+2      	; 0x278e <xTaskGenericCreate+0x1e0>
    278c:	8f ef       	ldi	r24, 0xFF	; 255
    278e:	df 91       	pop	r29
    2790:	cf 91       	pop	r28
    2792:	1f 91       	pop	r17
    2794:	0f 91       	pop	r16
    2796:	ff 90       	pop	r15
    2798:	ef 90       	pop	r14
    279a:	df 90       	pop	r13
    279c:	cf 90       	pop	r12
    279e:	bf 90       	pop	r11
    27a0:	af 90       	pop	r10
    27a2:	9f 90       	pop	r9
    27a4:	8f 90       	pop	r8
    27a6:	7f 90       	pop	r7
    27a8:	6f 90       	pop	r6
    27aa:	5f 90       	pop	r5
    27ac:	4f 90       	pop	r4
    27ae:	08 95       	ret

000027b0 <vTaskStartScheduler>:
    27b0:	af 92       	push	r10
    27b2:	bf 92       	push	r11
    27b4:	cf 92       	push	r12
    27b6:	df 92       	push	r13
    27b8:	ef 92       	push	r14
    27ba:	ff 92       	push	r15
    27bc:	0f 93       	push	r16
    27be:	a1 2c       	mov	r10, r1
    27c0:	b1 2c       	mov	r11, r1
    27c2:	c1 2c       	mov	r12, r1
    27c4:	d1 2c       	mov	r13, r1
    27c6:	e1 2c       	mov	r14, r1
    27c8:	f1 2c       	mov	r15, r1
    27ca:	00 e0       	ldi	r16, 0x00	; 0
    27cc:	20 e0       	ldi	r18, 0x00	; 0
    27ce:	30 e0       	ldi	r19, 0x00	; 0
    27d0:	45 e5       	ldi	r20, 0x55	; 85
    27d2:	50 e0       	ldi	r21, 0x00	; 0
    27d4:	66 e1       	ldi	r22, 0x16	; 22
    27d6:	70 e2       	ldi	r23, 0x20	; 32
    27d8:	8b e9       	ldi	r24, 0x9B	; 155
    27da:	92 e1       	ldi	r25, 0x12	; 18
    27dc:	e8 de       	rcall	.-560    	; 0x25ae <xTaskGenericCreate>
    27de:	81 30       	cpi	r24, 0x01	; 1
    27e0:	91 f4       	brne	.+36     	; 0x2806 <vTaskStartScheduler+0x56>
    27e2:	20 d3       	rcall	.+1600   	; 0x2e24 <xTimerCreateTimerTask>
    27e4:	81 30       	cpi	r24, 0x01	; 1
    27e6:	79 f4       	brne	.+30     	; 0x2806 <vTaskStartScheduler+0x56>
    27e8:	f8 94       	cli
    27ea:	8f ef       	ldi	r24, 0xFF	; 255
    27ec:	9f ef       	ldi	r25, 0xFF	; 255
    27ee:	80 93 53 22 	sts	0x2253, r24	; 0x802253 <xNextTaskUnblockTime>
    27f2:	90 93 54 22 	sts	0x2254, r25	; 0x802254 <xNextTaskUnblockTime+0x1>
    27f6:	81 e0       	ldi	r24, 0x01	; 1
    27f8:	80 93 59 22 	sts	0x2259, r24	; 0x802259 <xSchedulerRunning>
    27fc:	10 92 5b 22 	sts	0x225B, r1	; 0x80225b <xTickCount>
    2800:	10 92 5c 22 	sts	0x225C, r1	; 0x80225c <xTickCount+0x1>
    2804:	03 db       	rcall	.-2554   	; 0x1e0c <xPortStartScheduler>
    2806:	0f 91       	pop	r16
    2808:	ff 90       	pop	r15
    280a:	ef 90       	pop	r14
    280c:	df 90       	pop	r13
    280e:	cf 90       	pop	r12
    2810:	bf 90       	pop	r11
    2812:	af 90       	pop	r10
    2814:	08 95       	ret

00002816 <vTaskSuspendAll>:
    2816:	80 91 52 22 	lds	r24, 0x2252	; 0x802252 <uxSchedulerSuspended>
    281a:	8f 5f       	subi	r24, 0xFF	; 255
    281c:	80 93 52 22 	sts	0x2252, r24	; 0x802252 <uxSchedulerSuspended>
    2820:	08 95       	ret

00002822 <xTaskGetTickCount>:
    2822:	0f b6       	in	r0, 0x3f	; 63
    2824:	f8 94       	cli
    2826:	0f 92       	push	r0
    2828:	80 91 5b 22 	lds	r24, 0x225B	; 0x80225b <xTickCount>
    282c:	90 91 5c 22 	lds	r25, 0x225C	; 0x80225c <xTickCount+0x1>
    2830:	0f 90       	pop	r0
    2832:	0f be       	out	0x3f, r0	; 63
    2834:	08 95       	ret

00002836 <xTaskIncrementTick>:
    2836:	df 92       	push	r13
    2838:	ef 92       	push	r14
    283a:	ff 92       	push	r15
    283c:	0f 93       	push	r16
    283e:	1f 93       	push	r17
    2840:	cf 93       	push	r28
    2842:	df 93       	push	r29
    2844:	80 91 52 22 	lds	r24, 0x2252	; 0x802252 <uxSchedulerSuspended>
    2848:	81 11       	cpse	r24, r1
    284a:	b3 c0       	rjmp	.+358    	; 0x29b2 <xTaskIncrementTick+0x17c>
    284c:	80 91 5b 22 	lds	r24, 0x225B	; 0x80225b <xTickCount>
    2850:	90 91 5c 22 	lds	r25, 0x225C	; 0x80225c <xTickCount+0x1>
    2854:	01 96       	adiw	r24, 0x01	; 1
    2856:	80 93 5b 22 	sts	0x225B, r24	; 0x80225b <xTickCount>
    285a:	90 93 5c 22 	sts	0x225C, r25	; 0x80225c <xTickCount+0x1>
    285e:	e0 90 5b 22 	lds	r14, 0x225B	; 0x80225b <xTickCount>
    2862:	f0 90 5c 22 	lds	r15, 0x225C	; 0x80225c <xTickCount+0x1>
    2866:	e1 14       	cp	r14, r1
    2868:	f1 04       	cpc	r15, r1
    286a:	99 f5       	brne	.+102    	; 0x28d2 <xTaskIncrementTick+0x9c>
    286c:	80 91 69 22 	lds	r24, 0x2269	; 0x802269 <pxDelayedTaskList>
    2870:	90 91 6a 22 	lds	r25, 0x226A	; 0x80226a <pxDelayedTaskList+0x1>
    2874:	20 91 67 22 	lds	r18, 0x2267	; 0x802267 <pxOverflowDelayedTaskList>
    2878:	30 91 68 22 	lds	r19, 0x2268	; 0x802268 <pxOverflowDelayedTaskList+0x1>
    287c:	20 93 69 22 	sts	0x2269, r18	; 0x802269 <pxDelayedTaskList>
    2880:	30 93 6a 22 	sts	0x226A, r19	; 0x80226a <pxDelayedTaskList+0x1>
    2884:	80 93 67 22 	sts	0x2267, r24	; 0x802267 <pxOverflowDelayedTaskList>
    2888:	90 93 68 22 	sts	0x2268, r25	; 0x802268 <pxOverflowDelayedTaskList+0x1>
    288c:	80 91 56 22 	lds	r24, 0x2256	; 0x802256 <xNumOfOverflows>
    2890:	8f 5f       	subi	r24, 0xFF	; 255
    2892:	80 93 56 22 	sts	0x2256, r24	; 0x802256 <xNumOfOverflows>
    2896:	e0 91 69 22 	lds	r30, 0x2269	; 0x802269 <pxDelayedTaskList>
    289a:	f0 91 6a 22 	lds	r31, 0x226A	; 0x80226a <pxDelayedTaskList+0x1>
    289e:	80 81       	ld	r24, Z
    28a0:	81 11       	cpse	r24, r1
    28a2:	07 c0       	rjmp	.+14     	; 0x28b2 <xTaskIncrementTick+0x7c>
    28a4:	8f ef       	ldi	r24, 0xFF	; 255
    28a6:	9f ef       	ldi	r25, 0xFF	; 255
    28a8:	80 93 53 22 	sts	0x2253, r24	; 0x802253 <xNextTaskUnblockTime>
    28ac:	90 93 54 22 	sts	0x2254, r25	; 0x802254 <xNextTaskUnblockTime+0x1>
    28b0:	10 c0       	rjmp	.+32     	; 0x28d2 <xTaskIncrementTick+0x9c>
    28b2:	e0 91 69 22 	lds	r30, 0x2269	; 0x802269 <pxDelayedTaskList>
    28b6:	f0 91 6a 22 	lds	r31, 0x226A	; 0x80226a <pxDelayedTaskList+0x1>
    28ba:	05 80       	ldd	r0, Z+5	; 0x05
    28bc:	f6 81       	ldd	r31, Z+6	; 0x06
    28be:	e0 2d       	mov	r30, r0
    28c0:	06 80       	ldd	r0, Z+6	; 0x06
    28c2:	f7 81       	ldd	r31, Z+7	; 0x07
    28c4:	e0 2d       	mov	r30, r0
    28c6:	82 81       	ldd	r24, Z+2	; 0x02
    28c8:	93 81       	ldd	r25, Z+3	; 0x03
    28ca:	80 93 53 22 	sts	0x2253, r24	; 0x802253 <xNextTaskUnblockTime>
    28ce:	90 93 54 22 	sts	0x2254, r25	; 0x802254 <xNextTaskUnblockTime+0x1>
    28d2:	80 91 53 22 	lds	r24, 0x2253	; 0x802253 <xNextTaskUnblockTime>
    28d6:	90 91 54 22 	lds	r25, 0x2254	; 0x802254 <xNextTaskUnblockTime+0x1>
    28da:	e8 16       	cp	r14, r24
    28dc:	f9 06       	cpc	r15, r25
    28de:	10 f4       	brcc	.+4      	; 0x28e4 <xTaskIncrementTick+0xae>
    28e0:	d1 2c       	mov	r13, r1
    28e2:	4f c0       	rjmp	.+158    	; 0x2982 <xTaskIncrementTick+0x14c>
    28e4:	d1 2c       	mov	r13, r1
    28e6:	e0 91 69 22 	lds	r30, 0x2269	; 0x802269 <pxDelayedTaskList>
    28ea:	f0 91 6a 22 	lds	r31, 0x226A	; 0x80226a <pxDelayedTaskList+0x1>
    28ee:	80 81       	ld	r24, Z
    28f0:	81 11       	cpse	r24, r1
    28f2:	07 c0       	rjmp	.+14     	; 0x2902 <xTaskIncrementTick+0xcc>
    28f4:	8f ef       	ldi	r24, 0xFF	; 255
    28f6:	9f ef       	ldi	r25, 0xFF	; 255
    28f8:	80 93 53 22 	sts	0x2253, r24	; 0x802253 <xNextTaskUnblockTime>
    28fc:	90 93 54 22 	sts	0x2254, r25	; 0x802254 <xNextTaskUnblockTime+0x1>
    2900:	40 c0       	rjmp	.+128    	; 0x2982 <xTaskIncrementTick+0x14c>
    2902:	e0 91 69 22 	lds	r30, 0x2269	; 0x802269 <pxDelayedTaskList>
    2906:	f0 91 6a 22 	lds	r31, 0x226A	; 0x80226a <pxDelayedTaskList+0x1>
    290a:	05 80       	ldd	r0, Z+5	; 0x05
    290c:	f6 81       	ldd	r31, Z+6	; 0x06
    290e:	e0 2d       	mov	r30, r0
    2910:	c6 81       	ldd	r28, Z+6	; 0x06
    2912:	d7 81       	ldd	r29, Z+7	; 0x07
    2914:	8a 81       	ldd	r24, Y+2	; 0x02
    2916:	9b 81       	ldd	r25, Y+3	; 0x03
    2918:	e8 16       	cp	r14, r24
    291a:	f9 06       	cpc	r15, r25
    291c:	28 f4       	brcc	.+10     	; 0x2928 <xTaskIncrementTick+0xf2>
    291e:	80 93 53 22 	sts	0x2253, r24	; 0x802253 <xNextTaskUnblockTime>
    2922:	90 93 54 22 	sts	0x2254, r25	; 0x802254 <xNextTaskUnblockTime+0x1>
    2926:	2d c0       	rjmp	.+90     	; 0x2982 <xTaskIncrementTick+0x14c>
    2928:	8e 01       	movw	r16, r28
    292a:	0e 5f       	subi	r16, 0xFE	; 254
    292c:	1f 4f       	sbci	r17, 0xFF	; 255
    292e:	c8 01       	movw	r24, r16
    2930:	d0 d9       	rcall	.-3168   	; 0x1cd2 <uxListRemove>
    2932:	8c 89       	ldd	r24, Y+20	; 0x14
    2934:	9d 89       	ldd	r25, Y+21	; 0x15
    2936:	89 2b       	or	r24, r25
    2938:	19 f0       	breq	.+6      	; 0x2940 <xTaskIncrementTick+0x10a>
    293a:	ce 01       	movw	r24, r28
    293c:	0c 96       	adiw	r24, 0x0c	; 12
    293e:	c9 d9       	rcall	.-3182   	; 0x1cd2 <uxListRemove>
    2940:	8e 89       	ldd	r24, Y+22	; 0x16
    2942:	90 91 5a 22 	lds	r25, 0x225A	; 0x80225a <uxTopReadyPriority>
    2946:	98 17       	cp	r25, r24
    2948:	10 f4       	brcc	.+4      	; 0x294e <xTaskIncrementTick+0x118>
    294a:	80 93 5a 22 	sts	0x225A, r24	; 0x80225a <uxTopReadyPriority>
    294e:	90 e0       	ldi	r25, 0x00	; 0
    2950:	9c 01       	movw	r18, r24
    2952:	22 0f       	add	r18, r18
    2954:	33 1f       	adc	r19, r19
    2956:	22 0f       	add	r18, r18
    2958:	33 1f       	adc	r19, r19
    295a:	22 0f       	add	r18, r18
    295c:	33 1f       	adc	r19, r19
    295e:	82 0f       	add	r24, r18
    2960:	93 1f       	adc	r25, r19
    2962:	b8 01       	movw	r22, r16
    2964:	83 58       	subi	r24, 0x83	; 131
    2966:	9d 4d       	sbci	r25, 0xDD	; 221
    2968:	62 d9       	rcall	.-3388   	; 0x1c2e <vListInsertEnd>
    296a:	e0 91 aa 22 	lds	r30, 0x22AA	; 0x8022aa <pxCurrentTCB>
    296e:	f0 91 ab 22 	lds	r31, 0x22AB	; 0x8022ab <pxCurrentTCB+0x1>
    2972:	9e 89       	ldd	r25, Y+22	; 0x16
    2974:	86 89       	ldd	r24, Z+22	; 0x16
    2976:	98 17       	cp	r25, r24
    2978:	08 f4       	brcc	.+2      	; 0x297c <xTaskIncrementTick+0x146>
    297a:	b5 cf       	rjmp	.-150    	; 0x28e6 <xTaskIncrementTick+0xb0>
    297c:	dd 24       	eor	r13, r13
    297e:	d3 94       	inc	r13
    2980:	b2 cf       	rjmp	.-156    	; 0x28e6 <xTaskIncrementTick+0xb0>
    2982:	e0 91 aa 22 	lds	r30, 0x22AA	; 0x8022aa <pxCurrentTCB>
    2986:	f0 91 ab 22 	lds	r31, 0x22AB	; 0x8022ab <pxCurrentTCB+0x1>
    298a:	86 89       	ldd	r24, Z+22	; 0x16
    298c:	90 e0       	ldi	r25, 0x00	; 0
    298e:	fc 01       	movw	r30, r24
    2990:	ee 0f       	add	r30, r30
    2992:	ff 1f       	adc	r31, r31
    2994:	ee 0f       	add	r30, r30
    2996:	ff 1f       	adc	r31, r31
    2998:	ee 0f       	add	r30, r30
    299a:	ff 1f       	adc	r31, r31
    299c:	8e 0f       	add	r24, r30
    299e:	9f 1f       	adc	r25, r31
    29a0:	fc 01       	movw	r30, r24
    29a2:	e3 58       	subi	r30, 0x83	; 131
    29a4:	fd 4d       	sbci	r31, 0xDD	; 221
    29a6:	80 81       	ld	r24, Z
    29a8:	82 30       	cpi	r24, 0x02	; 2
    29aa:	48 f0       	brcs	.+18     	; 0x29be <xTaskIncrementTick+0x188>
    29ac:	dd 24       	eor	r13, r13
    29ae:	d3 94       	inc	r13
    29b0:	06 c0       	rjmp	.+12     	; 0x29be <xTaskIncrementTick+0x188>
    29b2:	80 91 58 22 	lds	r24, 0x2258	; 0x802258 <uxPendedTicks>
    29b6:	8f 5f       	subi	r24, 0xFF	; 255
    29b8:	80 93 58 22 	sts	0x2258, r24	; 0x802258 <uxPendedTicks>
    29bc:	d1 2c       	mov	r13, r1
    29be:	80 91 57 22 	lds	r24, 0x2257	; 0x802257 <xYieldPending>
    29c2:	88 23       	and	r24, r24
    29c4:	11 f0       	breq	.+4      	; 0x29ca <xTaskIncrementTick+0x194>
    29c6:	dd 24       	eor	r13, r13
    29c8:	d3 94       	inc	r13
    29ca:	8d 2d       	mov	r24, r13
    29cc:	df 91       	pop	r29
    29ce:	cf 91       	pop	r28
    29d0:	1f 91       	pop	r17
    29d2:	0f 91       	pop	r16
    29d4:	ff 90       	pop	r15
    29d6:	ef 90       	pop	r14
    29d8:	df 90       	pop	r13
    29da:	08 95       	ret

000029dc <xTaskResumeAll>:
    29dc:	df 92       	push	r13
    29de:	ef 92       	push	r14
    29e0:	ff 92       	push	r15
    29e2:	0f 93       	push	r16
    29e4:	1f 93       	push	r17
    29e6:	cf 93       	push	r28
    29e8:	df 93       	push	r29
    29ea:	0f b6       	in	r0, 0x3f	; 63
    29ec:	f8 94       	cli
    29ee:	0f 92       	push	r0
    29f0:	80 91 52 22 	lds	r24, 0x2252	; 0x802252 <uxSchedulerSuspended>
    29f4:	81 50       	subi	r24, 0x01	; 1
    29f6:	80 93 52 22 	sts	0x2252, r24	; 0x802252 <uxSchedulerSuspended>
    29fa:	80 91 52 22 	lds	r24, 0x2252	; 0x802252 <uxSchedulerSuspended>
    29fe:	81 11       	cpse	r24, r1
    2a00:	5d c0       	rjmp	.+186    	; 0x2abc <xTaskResumeAll+0xe0>
    2a02:	80 91 5d 22 	lds	r24, 0x225D	; 0x80225d <uxCurrentNumberOfTasks>
    2a06:	81 11       	cpse	r24, r1
    2a08:	30 c0       	rjmp	.+96     	; 0x2a6a <xTaskResumeAll+0x8e>
    2a0a:	5b c0       	rjmp	.+182    	; 0x2ac2 <xTaskResumeAll+0xe6>
    2a0c:	d7 01       	movw	r26, r14
    2a0e:	15 96       	adiw	r26, 0x05	; 5
    2a10:	ed 91       	ld	r30, X+
    2a12:	fc 91       	ld	r31, X
    2a14:	16 97       	sbiw	r26, 0x06	; 6
    2a16:	c6 81       	ldd	r28, Z+6	; 0x06
    2a18:	d7 81       	ldd	r29, Z+7	; 0x07
    2a1a:	ce 01       	movw	r24, r28
    2a1c:	0c 96       	adiw	r24, 0x0c	; 12
    2a1e:	59 d9       	rcall	.-3406   	; 0x1cd2 <uxListRemove>
    2a20:	8e 01       	movw	r16, r28
    2a22:	0e 5f       	subi	r16, 0xFE	; 254
    2a24:	1f 4f       	sbci	r17, 0xFF	; 255
    2a26:	c8 01       	movw	r24, r16
    2a28:	54 d9       	rcall	.-3416   	; 0x1cd2 <uxListRemove>
    2a2a:	8e 89       	ldd	r24, Y+22	; 0x16
    2a2c:	90 91 5a 22 	lds	r25, 0x225A	; 0x80225a <uxTopReadyPriority>
    2a30:	98 17       	cp	r25, r24
    2a32:	10 f4       	brcc	.+4      	; 0x2a38 <xTaskResumeAll+0x5c>
    2a34:	80 93 5a 22 	sts	0x225A, r24	; 0x80225a <uxTopReadyPriority>
    2a38:	90 e0       	ldi	r25, 0x00	; 0
    2a3a:	9c 01       	movw	r18, r24
    2a3c:	22 0f       	add	r18, r18
    2a3e:	33 1f       	adc	r19, r19
    2a40:	22 0f       	add	r18, r18
    2a42:	33 1f       	adc	r19, r19
    2a44:	22 0f       	add	r18, r18
    2a46:	33 1f       	adc	r19, r19
    2a48:	82 0f       	add	r24, r18
    2a4a:	93 1f       	adc	r25, r19
    2a4c:	b8 01       	movw	r22, r16
    2a4e:	83 58       	subi	r24, 0x83	; 131
    2a50:	9d 4d       	sbci	r25, 0xDD	; 221
    2a52:	ed d8       	rcall	.-3622   	; 0x1c2e <vListInsertEnd>
    2a54:	e0 91 aa 22 	lds	r30, 0x22AA	; 0x8022aa <pxCurrentTCB>
    2a58:	f0 91 ab 22 	lds	r31, 0x22AB	; 0x8022ab <pxCurrentTCB+0x1>
    2a5c:	9e 89       	ldd	r25, Y+22	; 0x16
    2a5e:	86 89       	ldd	r24, Z+22	; 0x16
    2a60:	98 17       	cp	r25, r24
    2a62:	58 f0       	brcs	.+22     	; 0x2a7a <xTaskResumeAll+0x9e>
    2a64:	d0 92 57 22 	sts	0x2257, r13	; 0x802257 <xYieldPending>
    2a68:	08 c0       	rjmp	.+16     	; 0x2a7a <xTaskResumeAll+0x9e>
    2a6a:	0f 2e       	mov	r0, r31
    2a6c:	fe e5       	ldi	r31, 0x5E	; 94
    2a6e:	ef 2e       	mov	r14, r31
    2a70:	f2 e2       	ldi	r31, 0x22	; 34
    2a72:	ff 2e       	mov	r15, r31
    2a74:	f0 2d       	mov	r31, r0
    2a76:	dd 24       	eor	r13, r13
    2a78:	d3 94       	inc	r13
    2a7a:	f7 01       	movw	r30, r14
    2a7c:	80 81       	ld	r24, Z
    2a7e:	81 11       	cpse	r24, r1
    2a80:	c5 cf       	rjmp	.-118    	; 0x2a0c <xTaskResumeAll+0x30>
    2a82:	80 91 58 22 	lds	r24, 0x2258	; 0x802258 <uxPendedTicks>
    2a86:	88 23       	and	r24, r24
    2a88:	91 f0       	breq	.+36     	; 0x2aae <xTaskResumeAll+0xd2>
    2a8a:	80 91 58 22 	lds	r24, 0x2258	; 0x802258 <uxPendedTicks>
    2a8e:	88 23       	and	r24, r24
    2a90:	71 f0       	breq	.+28     	; 0x2aae <xTaskResumeAll+0xd2>
    2a92:	c1 e0       	ldi	r28, 0x01	; 1
    2a94:	d0 de       	rcall	.-608    	; 0x2836 <xTaskIncrementTick>
    2a96:	81 11       	cpse	r24, r1
    2a98:	c0 93 57 22 	sts	0x2257, r28	; 0x802257 <xYieldPending>
    2a9c:	80 91 58 22 	lds	r24, 0x2258	; 0x802258 <uxPendedTicks>
    2aa0:	81 50       	subi	r24, 0x01	; 1
    2aa2:	80 93 58 22 	sts	0x2258, r24	; 0x802258 <uxPendedTicks>
    2aa6:	80 91 58 22 	lds	r24, 0x2258	; 0x802258 <uxPendedTicks>
    2aaa:	81 11       	cpse	r24, r1
    2aac:	f3 cf       	rjmp	.-26     	; 0x2a94 <xTaskResumeAll+0xb8>
    2aae:	80 91 57 22 	lds	r24, 0x2257	; 0x802257 <xYieldPending>
    2ab2:	81 30       	cpi	r24, 0x01	; 1
    2ab4:	29 f4       	brne	.+10     	; 0x2ac0 <xTaskResumeAll+0xe4>
    2ab6:	ef d9       	rcall	.-3106   	; 0x1e96 <vPortYield>
    2ab8:	81 e0       	ldi	r24, 0x01	; 1
    2aba:	03 c0       	rjmp	.+6      	; 0x2ac2 <xTaskResumeAll+0xe6>
    2abc:	80 e0       	ldi	r24, 0x00	; 0
    2abe:	01 c0       	rjmp	.+2      	; 0x2ac2 <xTaskResumeAll+0xe6>
    2ac0:	80 e0       	ldi	r24, 0x00	; 0
    2ac2:	0f 90       	pop	r0
    2ac4:	0f be       	out	0x3f, r0	; 63
    2ac6:	df 91       	pop	r29
    2ac8:	cf 91       	pop	r28
    2aca:	1f 91       	pop	r17
    2acc:	0f 91       	pop	r16
    2ace:	ff 90       	pop	r15
    2ad0:	ef 90       	pop	r14
    2ad2:	df 90       	pop	r13
    2ad4:	08 95       	ret

00002ad6 <vTaskDelay>:
    2ad6:	cf 93       	push	r28
    2ad8:	df 93       	push	r29
    2ada:	ec 01       	movw	r28, r24
    2adc:	89 2b       	or	r24, r25
    2ade:	91 f0       	breq	.+36     	; 0x2b04 <vTaskDelay+0x2e>
    2ae0:	9a de       	rcall	.-716    	; 0x2816 <vTaskSuspendAll>
    2ae2:	80 91 5b 22 	lds	r24, 0x225B	; 0x80225b <xTickCount>
    2ae6:	90 91 5c 22 	lds	r25, 0x225C	; 0x80225c <xTickCount+0x1>
    2aea:	c8 0f       	add	r28, r24
    2aec:	d9 1f       	adc	r29, r25
    2aee:	80 91 aa 22 	lds	r24, 0x22AA	; 0x8022aa <pxCurrentTCB>
    2af2:	90 91 ab 22 	lds	r25, 0x22AB	; 0x8022ab <pxCurrentTCB+0x1>
    2af6:	02 96       	adiw	r24, 0x02	; 2
    2af8:	ec d8       	rcall	.-3624   	; 0x1cd2 <uxListRemove>
    2afa:	ce 01       	movw	r24, r28
    2afc:	23 dd       	rcall	.-1466   	; 0x2544 <prvAddCurrentTaskToDelayedList>
    2afe:	6e df       	rcall	.-292    	; 0x29dc <xTaskResumeAll>
    2b00:	81 11       	cpse	r24, r1
    2b02:	01 c0       	rjmp	.+2      	; 0x2b06 <vTaskDelay+0x30>
    2b04:	c8 d9       	rcall	.-3184   	; 0x1e96 <vPortYield>
    2b06:	df 91       	pop	r29
    2b08:	cf 91       	pop	r28
    2b0a:	08 95       	ret

00002b0c <vTaskSwitchContext>:
    2b0c:	80 91 52 22 	lds	r24, 0x2252	; 0x802252 <uxSchedulerSuspended>
    2b10:	88 23       	and	r24, r24
    2b12:	21 f0       	breq	.+8      	; 0x2b1c <vTaskSwitchContext+0x10>
    2b14:	81 e0       	ldi	r24, 0x01	; 1
    2b16:	80 93 57 22 	sts	0x2257, r24	; 0x802257 <xYieldPending>
    2b1a:	08 95       	ret
    2b1c:	10 92 57 22 	sts	0x2257, r1	; 0x802257 <xYieldPending>
    2b20:	80 91 5a 22 	lds	r24, 0x225A	; 0x80225a <uxTopReadyPriority>
    2b24:	90 e0       	ldi	r25, 0x00	; 0
    2b26:	fc 01       	movw	r30, r24
    2b28:	ee 0f       	add	r30, r30
    2b2a:	ff 1f       	adc	r31, r31
    2b2c:	ee 0f       	add	r30, r30
    2b2e:	ff 1f       	adc	r31, r31
    2b30:	ee 0f       	add	r30, r30
    2b32:	ff 1f       	adc	r31, r31
    2b34:	8e 0f       	add	r24, r30
    2b36:	9f 1f       	adc	r25, r31
    2b38:	fc 01       	movw	r30, r24
    2b3a:	e3 58       	subi	r30, 0x83	; 131
    2b3c:	fd 4d       	sbci	r31, 0xDD	; 221
    2b3e:	80 81       	ld	r24, Z
    2b40:	81 11       	cpse	r24, r1
    2b42:	17 c0       	rjmp	.+46     	; 0x2b72 <vTaskSwitchContext+0x66>
    2b44:	80 91 5a 22 	lds	r24, 0x225A	; 0x80225a <uxTopReadyPriority>
    2b48:	81 50       	subi	r24, 0x01	; 1
    2b4a:	80 93 5a 22 	sts	0x225A, r24	; 0x80225a <uxTopReadyPriority>
    2b4e:	80 91 5a 22 	lds	r24, 0x225A	; 0x80225a <uxTopReadyPriority>
    2b52:	90 e0       	ldi	r25, 0x00	; 0
    2b54:	fc 01       	movw	r30, r24
    2b56:	ee 0f       	add	r30, r30
    2b58:	ff 1f       	adc	r31, r31
    2b5a:	ee 0f       	add	r30, r30
    2b5c:	ff 1f       	adc	r31, r31
    2b5e:	ee 0f       	add	r30, r30
    2b60:	ff 1f       	adc	r31, r31
    2b62:	8e 0f       	add	r24, r30
    2b64:	9f 1f       	adc	r25, r31
    2b66:	fc 01       	movw	r30, r24
    2b68:	e3 58       	subi	r30, 0x83	; 131
    2b6a:	fd 4d       	sbci	r31, 0xDD	; 221
    2b6c:	80 81       	ld	r24, Z
    2b6e:	88 23       	and	r24, r24
    2b70:	49 f3       	breq	.-46     	; 0x2b44 <vTaskSwitchContext+0x38>
    2b72:	80 91 5a 22 	lds	r24, 0x225A	; 0x80225a <uxTopReadyPriority>
    2b76:	90 e0       	ldi	r25, 0x00	; 0
    2b78:	9c 01       	movw	r18, r24
    2b7a:	22 0f       	add	r18, r18
    2b7c:	33 1f       	adc	r19, r19
    2b7e:	22 0f       	add	r18, r18
    2b80:	33 1f       	adc	r19, r19
    2b82:	22 0f       	add	r18, r18
    2b84:	33 1f       	adc	r19, r19
    2b86:	28 0f       	add	r18, r24
    2b88:	39 1f       	adc	r19, r25
    2b8a:	d9 01       	movw	r26, r18
    2b8c:	a3 58       	subi	r26, 0x83	; 131
    2b8e:	bd 4d       	sbci	r27, 0xDD	; 221
    2b90:	11 96       	adiw	r26, 0x01	; 1
    2b92:	ed 91       	ld	r30, X+
    2b94:	fc 91       	ld	r31, X
    2b96:	12 97       	sbiw	r26, 0x02	; 2
    2b98:	02 80       	ldd	r0, Z+2	; 0x02
    2b9a:	f3 81       	ldd	r31, Z+3	; 0x03
    2b9c:	e0 2d       	mov	r30, r0
    2b9e:	11 96       	adiw	r26, 0x01	; 1
    2ba0:	ed 93       	st	X+, r30
    2ba2:	fc 93       	st	X, r31
    2ba4:	12 97       	sbiw	r26, 0x02	; 2
    2ba6:	20 58       	subi	r18, 0x80	; 128
    2ba8:	3d 4d       	sbci	r19, 0xDD	; 221
    2baa:	e2 17       	cp	r30, r18
    2bac:	f3 07       	cpc	r31, r19
    2bae:	29 f4       	brne	.+10     	; 0x2bba <vTaskSwitchContext+0xae>
    2bb0:	22 81       	ldd	r18, Z+2	; 0x02
    2bb2:	33 81       	ldd	r19, Z+3	; 0x03
    2bb4:	fd 01       	movw	r30, r26
    2bb6:	21 83       	std	Z+1, r18	; 0x01
    2bb8:	32 83       	std	Z+2, r19	; 0x02
    2bba:	fc 01       	movw	r30, r24
    2bbc:	ee 0f       	add	r30, r30
    2bbe:	ff 1f       	adc	r31, r31
    2bc0:	ee 0f       	add	r30, r30
    2bc2:	ff 1f       	adc	r31, r31
    2bc4:	ee 0f       	add	r30, r30
    2bc6:	ff 1f       	adc	r31, r31
    2bc8:	8e 0f       	add	r24, r30
    2bca:	9f 1f       	adc	r25, r31
    2bcc:	fc 01       	movw	r30, r24
    2bce:	e3 58       	subi	r30, 0x83	; 131
    2bd0:	fd 4d       	sbci	r31, 0xDD	; 221
    2bd2:	01 80       	ldd	r0, Z+1	; 0x01
    2bd4:	f2 81       	ldd	r31, Z+2	; 0x02
    2bd6:	e0 2d       	mov	r30, r0
    2bd8:	86 81       	ldd	r24, Z+6	; 0x06
    2bda:	97 81       	ldd	r25, Z+7	; 0x07
    2bdc:	80 93 aa 22 	sts	0x22AA, r24	; 0x8022aa <pxCurrentTCB>
    2be0:	90 93 ab 22 	sts	0x22AB, r25	; 0x8022ab <pxCurrentTCB+0x1>
    2be4:	08 95       	ret

00002be6 <vTaskPlaceOnEventList>:
    2be6:	cf 93       	push	r28
    2be8:	df 93       	push	r29
    2bea:	eb 01       	movw	r28, r22
    2bec:	60 91 aa 22 	lds	r22, 0x22AA	; 0x8022aa <pxCurrentTCB>
    2bf0:	70 91 ab 22 	lds	r23, 0x22AB	; 0x8022ab <pxCurrentTCB+0x1>
    2bf4:	64 5f       	subi	r22, 0xF4	; 244
    2bf6:	7f 4f       	sbci	r23, 0xFF	; 255
    2bf8:	3b d8       	rcall	.-3978   	; 0x1c70 <vListInsert>
    2bfa:	80 91 aa 22 	lds	r24, 0x22AA	; 0x8022aa <pxCurrentTCB>
    2bfe:	90 91 ab 22 	lds	r25, 0x22AB	; 0x8022ab <pxCurrentTCB+0x1>
    2c02:	02 96       	adiw	r24, 0x02	; 2
    2c04:	66 d8       	rcall	.-3892   	; 0x1cd2 <uxListRemove>
    2c06:	80 91 5b 22 	lds	r24, 0x225B	; 0x80225b <xTickCount>
    2c0a:	90 91 5c 22 	lds	r25, 0x225C	; 0x80225c <xTickCount+0x1>
    2c0e:	8c 0f       	add	r24, r28
    2c10:	9d 1f       	adc	r25, r29
    2c12:	98 dc       	rcall	.-1744   	; 0x2544 <prvAddCurrentTaskToDelayedList>
    2c14:	df 91       	pop	r29
    2c16:	cf 91       	pop	r28
    2c18:	08 95       	ret

00002c1a <vTaskPlaceOnEventListRestricted>:
    2c1a:	cf 93       	push	r28
    2c1c:	df 93       	push	r29
    2c1e:	eb 01       	movw	r28, r22
    2c20:	60 91 aa 22 	lds	r22, 0x22AA	; 0x8022aa <pxCurrentTCB>
    2c24:	70 91 ab 22 	lds	r23, 0x22AB	; 0x8022ab <pxCurrentTCB+0x1>
    2c28:	64 5f       	subi	r22, 0xF4	; 244
    2c2a:	7f 4f       	sbci	r23, 0xFF	; 255
    2c2c:	00 d8       	rcall	.-4096   	; 0x1c2e <vListInsertEnd>
    2c2e:	80 91 aa 22 	lds	r24, 0x22AA	; 0x8022aa <pxCurrentTCB>
    2c32:	90 91 ab 22 	lds	r25, 0x22AB	; 0x8022ab <pxCurrentTCB+0x1>
    2c36:	02 96       	adiw	r24, 0x02	; 2
    2c38:	4c d8       	rcall	.-3944   	; 0x1cd2 <uxListRemove>
    2c3a:	80 91 5b 22 	lds	r24, 0x225B	; 0x80225b <xTickCount>
    2c3e:	90 91 5c 22 	lds	r25, 0x225C	; 0x80225c <xTickCount+0x1>
    2c42:	8c 0f       	add	r24, r28
    2c44:	9d 1f       	adc	r25, r29
    2c46:	7e dc       	rcall	.-1796   	; 0x2544 <prvAddCurrentTaskToDelayedList>
    2c48:	df 91       	pop	r29
    2c4a:	cf 91       	pop	r28
    2c4c:	08 95       	ret

00002c4e <xTaskRemoveFromEventList>:
    2c4e:	0f 93       	push	r16
    2c50:	1f 93       	push	r17
    2c52:	cf 93       	push	r28
    2c54:	df 93       	push	r29
    2c56:	dc 01       	movw	r26, r24
    2c58:	15 96       	adiw	r26, 0x05	; 5
    2c5a:	ed 91       	ld	r30, X+
    2c5c:	fc 91       	ld	r31, X
    2c5e:	16 97       	sbiw	r26, 0x06	; 6
    2c60:	c6 81       	ldd	r28, Z+6	; 0x06
    2c62:	d7 81       	ldd	r29, Z+7	; 0x07
    2c64:	8e 01       	movw	r16, r28
    2c66:	04 5f       	subi	r16, 0xF4	; 244
    2c68:	1f 4f       	sbci	r17, 0xFF	; 255
    2c6a:	c8 01       	movw	r24, r16
    2c6c:	32 d8       	rcall	.-3996   	; 0x1cd2 <uxListRemove>
    2c6e:	80 91 52 22 	lds	r24, 0x2252	; 0x802252 <uxSchedulerSuspended>
    2c72:	81 11       	cpse	r24, r1
    2c74:	1b c0       	rjmp	.+54     	; 0x2cac <xTaskRemoveFromEventList+0x5e>
    2c76:	0a 50       	subi	r16, 0x0A	; 10
    2c78:	11 09       	sbc	r17, r1
    2c7a:	c8 01       	movw	r24, r16
    2c7c:	2a d8       	rcall	.-4012   	; 0x1cd2 <uxListRemove>
    2c7e:	8e 89       	ldd	r24, Y+22	; 0x16
    2c80:	90 91 5a 22 	lds	r25, 0x225A	; 0x80225a <uxTopReadyPriority>
    2c84:	98 17       	cp	r25, r24
    2c86:	10 f4       	brcc	.+4      	; 0x2c8c <xTaskRemoveFromEventList+0x3e>
    2c88:	80 93 5a 22 	sts	0x225A, r24	; 0x80225a <uxTopReadyPriority>
    2c8c:	90 e0       	ldi	r25, 0x00	; 0
    2c8e:	9c 01       	movw	r18, r24
    2c90:	22 0f       	add	r18, r18
    2c92:	33 1f       	adc	r19, r19
    2c94:	22 0f       	add	r18, r18
    2c96:	33 1f       	adc	r19, r19
    2c98:	22 0f       	add	r18, r18
    2c9a:	33 1f       	adc	r19, r19
    2c9c:	82 0f       	add	r24, r18
    2c9e:	93 1f       	adc	r25, r19
    2ca0:	b8 01       	movw	r22, r16
    2ca2:	83 58       	subi	r24, 0x83	; 131
    2ca4:	9d 4d       	sbci	r25, 0xDD	; 221
    2ca6:	0e 94 17 0e 	call	0x1c2e	; 0x1c2e <vListInsertEnd>
    2caa:	05 c0       	rjmp	.+10     	; 0x2cb6 <xTaskRemoveFromEventList+0x68>
    2cac:	b8 01       	movw	r22, r16
    2cae:	8e e5       	ldi	r24, 0x5E	; 94
    2cb0:	92 e2       	ldi	r25, 0x22	; 34
    2cb2:	0e 94 17 0e 	call	0x1c2e	; 0x1c2e <vListInsertEnd>
    2cb6:	e0 91 aa 22 	lds	r30, 0x22AA	; 0x8022aa <pxCurrentTCB>
    2cba:	f0 91 ab 22 	lds	r31, 0x22AB	; 0x8022ab <pxCurrentTCB+0x1>
    2cbe:	9e 89       	ldd	r25, Y+22	; 0x16
    2cc0:	86 89       	ldd	r24, Z+22	; 0x16
    2cc2:	89 17       	cp	r24, r25
    2cc4:	20 f4       	brcc	.+8      	; 0x2cce <xTaskRemoveFromEventList+0x80>
    2cc6:	81 e0       	ldi	r24, 0x01	; 1
    2cc8:	80 93 57 22 	sts	0x2257, r24	; 0x802257 <xYieldPending>
    2ccc:	01 c0       	rjmp	.+2      	; 0x2cd0 <xTaskRemoveFromEventList+0x82>
    2cce:	80 e0       	ldi	r24, 0x00	; 0
    2cd0:	df 91       	pop	r29
    2cd2:	cf 91       	pop	r28
    2cd4:	1f 91       	pop	r17
    2cd6:	0f 91       	pop	r16
    2cd8:	08 95       	ret

00002cda <vTaskSetTimeOutState>:
    2cda:	20 91 56 22 	lds	r18, 0x2256	; 0x802256 <xNumOfOverflows>
    2cde:	fc 01       	movw	r30, r24
    2ce0:	20 83       	st	Z, r18
    2ce2:	20 91 5b 22 	lds	r18, 0x225B	; 0x80225b <xTickCount>
    2ce6:	30 91 5c 22 	lds	r19, 0x225C	; 0x80225c <xTickCount+0x1>
    2cea:	21 83       	std	Z+1, r18	; 0x01
    2cec:	32 83       	std	Z+2, r19	; 0x02
    2cee:	08 95       	ret

00002cf0 <xTaskCheckForTimeOut>:
    2cf0:	cf 93       	push	r28
    2cf2:	df 93       	push	r29
    2cf4:	fc 01       	movw	r30, r24
    2cf6:	0f b6       	in	r0, 0x3f	; 63
    2cf8:	f8 94       	cli
    2cfa:	0f 92       	push	r0
    2cfc:	20 91 5b 22 	lds	r18, 0x225B	; 0x80225b <xTickCount>
    2d00:	30 91 5c 22 	lds	r19, 0x225C	; 0x80225c <xTickCount+0x1>
    2d04:	80 91 56 22 	lds	r24, 0x2256	; 0x802256 <xNumOfOverflows>
    2d08:	90 81       	ld	r25, Z
    2d0a:	98 17       	cp	r25, r24
    2d0c:	29 f0       	breq	.+10     	; 0x2d18 <xTaskCheckForTimeOut+0x28>
    2d0e:	81 81       	ldd	r24, Z+1	; 0x01
    2d10:	92 81       	ldd	r25, Z+2	; 0x02
    2d12:	28 17       	cp	r18, r24
    2d14:	39 07       	cpc	r19, r25
    2d16:	a8 f4       	brcc	.+42     	; 0x2d42 <xTaskCheckForTimeOut+0x52>
    2d18:	a1 81       	ldd	r26, Z+1	; 0x01
    2d1a:	b2 81       	ldd	r27, Z+2	; 0x02
    2d1c:	eb 01       	movw	r28, r22
    2d1e:	48 81       	ld	r20, Y
    2d20:	59 81       	ldd	r21, Y+1	; 0x01
    2d22:	c9 01       	movw	r24, r18
    2d24:	8a 1b       	sub	r24, r26
    2d26:	9b 0b       	sbc	r25, r27
    2d28:	84 17       	cp	r24, r20
    2d2a:	95 07       	cpc	r25, r21
    2d2c:	60 f4       	brcc	.+24     	; 0x2d46 <xTaskCheckForTimeOut+0x56>
    2d2e:	cf 01       	movw	r24, r30
    2d30:	a2 1b       	sub	r26, r18
    2d32:	b3 0b       	sbc	r27, r19
    2d34:	4a 0f       	add	r20, r26
    2d36:	5b 1f       	adc	r21, r27
    2d38:	48 83       	st	Y, r20
    2d3a:	59 83       	std	Y+1, r21	; 0x01
    2d3c:	ce df       	rcall	.-100    	; 0x2cda <vTaskSetTimeOutState>
    2d3e:	80 e0       	ldi	r24, 0x00	; 0
    2d40:	03 c0       	rjmp	.+6      	; 0x2d48 <xTaskCheckForTimeOut+0x58>
    2d42:	81 e0       	ldi	r24, 0x01	; 1
    2d44:	01 c0       	rjmp	.+2      	; 0x2d48 <xTaskCheckForTimeOut+0x58>
    2d46:	81 e0       	ldi	r24, 0x01	; 1
    2d48:	0f 90       	pop	r0
    2d4a:	0f be       	out	0x3f, r0	; 63
    2d4c:	df 91       	pop	r29
    2d4e:	cf 91       	pop	r28
    2d50:	08 95       	ret

00002d52 <vTaskMissedYield>:
    2d52:	81 e0       	ldi	r24, 0x01	; 1
    2d54:	80 93 57 22 	sts	0x2257, r24	; 0x802257 <xYieldPending>
    2d58:	08 95       	ret

00002d5a <xTaskGetSchedulerState>:
    2d5a:	80 91 59 22 	lds	r24, 0x2259	; 0x802259 <xSchedulerRunning>
    2d5e:	88 23       	and	r24, r24
    2d60:	31 f0       	breq	.+12     	; 0x2d6e <xTaskGetSchedulerState+0x14>
    2d62:	80 91 52 22 	lds	r24, 0x2252	; 0x802252 <uxSchedulerSuspended>
    2d66:	88 23       	and	r24, r24
    2d68:	21 f0       	breq	.+8      	; 0x2d72 <xTaskGetSchedulerState+0x18>
    2d6a:	80 e0       	ldi	r24, 0x00	; 0
    2d6c:	08 95       	ret
    2d6e:	81 e0       	ldi	r24, 0x01	; 1
    2d70:	08 95       	ret
    2d72:	82 e0       	ldi	r24, 0x02	; 2
    2d74:	08 95       	ret

00002d76 <prvInsertTimerInActiveList>:
    2d76:	fc 01       	movw	r30, r24
    2d78:	62 83       	std	Z+2, r22	; 0x02
    2d7a:	73 83       	std	Z+3, r23	; 0x03
    2d7c:	80 87       	std	Z+8, r24	; 0x08
    2d7e:	91 87       	std	Z+9, r25	; 0x09
    2d80:	46 17       	cp	r20, r22
    2d82:	57 07       	cpc	r21, r23
    2d84:	90 f0       	brcs	.+36     	; 0x2daa <prvInsertTimerInActiveList+0x34>
    2d86:	42 1b       	sub	r20, r18
    2d88:	53 0b       	sbc	r21, r19
    2d8a:	84 85       	ldd	r24, Z+12	; 0x0c
    2d8c:	95 85       	ldd	r25, Z+13	; 0x0d
    2d8e:	48 17       	cp	r20, r24
    2d90:	59 07       	cpc	r21, r25
    2d92:	e0 f4       	brcc	.+56     	; 0x2dcc <prvInsertTimerInActiveList+0x56>
    2d94:	bf 01       	movw	r22, r30
    2d96:	6e 5f       	subi	r22, 0xFE	; 254
    2d98:	7f 4f       	sbci	r23, 0xFF	; 255
    2d9a:	80 91 b0 22 	lds	r24, 0x22B0	; 0x8022b0 <pxOverflowTimerList>
    2d9e:	90 91 b1 22 	lds	r25, 0x22B1	; 0x8022b1 <pxOverflowTimerList+0x1>
    2da2:	0e 94 38 0e 	call	0x1c70	; 0x1c70 <vListInsert>
    2da6:	80 e0       	ldi	r24, 0x00	; 0
    2da8:	08 95       	ret
    2daa:	42 17       	cp	r20, r18
    2dac:	53 07       	cpc	r21, r19
    2dae:	18 f4       	brcc	.+6      	; 0x2db6 <prvInsertTimerInActiveList+0x40>
    2db0:	62 17       	cp	r22, r18
    2db2:	73 07       	cpc	r23, r19
    2db4:	68 f4       	brcc	.+26     	; 0x2dd0 <prvInsertTimerInActiveList+0x5a>
    2db6:	bf 01       	movw	r22, r30
    2db8:	6e 5f       	subi	r22, 0xFE	; 254
    2dba:	7f 4f       	sbci	r23, 0xFF	; 255
    2dbc:	80 91 b2 22 	lds	r24, 0x22B2	; 0x8022b2 <pxCurrentTimerList>
    2dc0:	90 91 b3 22 	lds	r25, 0x22B3	; 0x8022b3 <pxCurrentTimerList+0x1>
    2dc4:	0e 94 38 0e 	call	0x1c70	; 0x1c70 <vListInsert>
    2dc8:	80 e0       	ldi	r24, 0x00	; 0
    2dca:	08 95       	ret
    2dcc:	81 e0       	ldi	r24, 0x01	; 1
    2dce:	08 95       	ret
    2dd0:	81 e0       	ldi	r24, 0x01	; 1
    2dd2:	08 95       	ret

00002dd4 <prvCheckForValidListAndQueue>:
    2dd4:	0f b6       	in	r0, 0x3f	; 63
    2dd6:	f8 94       	cli
    2dd8:	0f 92       	push	r0
    2dda:	80 91 ae 22 	lds	r24, 0x22AE	; 0x8022ae <xTimerQueue>
    2dde:	90 91 af 22 	lds	r25, 0x22AF	; 0x8022af <xTimerQueue+0x1>
    2de2:	89 2b       	or	r24, r25
    2de4:	e1 f4       	brne	.+56     	; 0x2e1e <prvCheckForValidListAndQueue+0x4a>
    2de6:	8d eb       	ldi	r24, 0xBD	; 189
    2de8:	92 e2       	ldi	r25, 0x22	; 34
    2dea:	0e 94 05 0e 	call	0x1c0a	; 0x1c0a <vListInitialise>
    2dee:	84 eb       	ldi	r24, 0xB4	; 180
    2df0:	92 e2       	ldi	r25, 0x22	; 34
    2df2:	0e 94 05 0e 	call	0x1c0a	; 0x1c0a <vListInitialise>
    2df6:	8d eb       	ldi	r24, 0xBD	; 189
    2df8:	92 e2       	ldi	r25, 0x22	; 34
    2dfa:	80 93 b2 22 	sts	0x22B2, r24	; 0x8022b2 <pxCurrentTimerList>
    2dfe:	90 93 b3 22 	sts	0x22B3, r25	; 0x8022b3 <pxCurrentTimerList+0x1>
    2e02:	84 eb       	ldi	r24, 0xB4	; 180
    2e04:	92 e2       	ldi	r25, 0x22	; 34
    2e06:	80 93 b0 22 	sts	0x22B0, r24	; 0x8022b0 <pxOverflowTimerList>
    2e0a:	90 93 b1 22 	sts	0x22B1, r25	; 0x8022b1 <pxOverflowTimerList+0x1>
    2e0e:	40 e0       	ldi	r20, 0x00	; 0
    2e10:	65 e0       	ldi	r22, 0x05	; 5
    2e12:	8a e0       	ldi	r24, 0x0A	; 10
    2e14:	f2 d9       	rcall	.-3100   	; 0x21fa <xQueueGenericCreate>
    2e16:	80 93 ae 22 	sts	0x22AE, r24	; 0x8022ae <xTimerQueue>
    2e1a:	90 93 af 22 	sts	0x22AF, r25	; 0x8022af <xTimerQueue+0x1>
    2e1e:	0f 90       	pop	r0
    2e20:	0f be       	out	0x3f, r0	; 63
    2e22:	08 95       	ret

00002e24 <xTimerCreateTimerTask>:
    2e24:	af 92       	push	r10
    2e26:	bf 92       	push	r11
    2e28:	cf 92       	push	r12
    2e2a:	df 92       	push	r13
    2e2c:	ef 92       	push	r14
    2e2e:	ff 92       	push	r15
    2e30:	0f 93       	push	r16
    2e32:	d0 df       	rcall	.-96     	; 0x2dd4 <prvCheckForValidListAndQueue>
    2e34:	80 91 ae 22 	lds	r24, 0x22AE	; 0x8022ae <xTimerQueue>
    2e38:	90 91 af 22 	lds	r25, 0x22AF	; 0x8022af <xTimerQueue+0x1>
    2e3c:	89 2b       	or	r24, r25
    2e3e:	89 f0       	breq	.+34     	; 0x2e62 <xTimerCreateTimerTask+0x3e>
    2e40:	a1 2c       	mov	r10, r1
    2e42:	b1 2c       	mov	r11, r1
    2e44:	c1 2c       	mov	r12, r1
    2e46:	d1 2c       	mov	r13, r1
    2e48:	e1 2c       	mov	r14, r1
    2e4a:	f1 2c       	mov	r15, r1
    2e4c:	03 e0       	ldi	r16, 0x03	; 3
    2e4e:	20 e0       	ldi	r18, 0x00	; 0
    2e50:	30 e0       	ldi	r19, 0x00	; 0
    2e52:	45 e5       	ldi	r20, 0x55	; 85
    2e54:	50 e0       	ldi	r21, 0x00	; 0
    2e56:	6b e1       	ldi	r22, 0x1B	; 27
    2e58:	70 e2       	ldi	r23, 0x20	; 32
    2e5a:	80 e2       	ldi	r24, 0x20	; 32
    2e5c:	98 e1       	ldi	r25, 0x18	; 24
    2e5e:	a7 db       	rcall	.-2226   	; 0x25ae <xTaskGenericCreate>
    2e60:	01 c0       	rjmp	.+2      	; 0x2e64 <xTimerCreateTimerTask+0x40>
    2e62:	80 e0       	ldi	r24, 0x00	; 0
    2e64:	0f 91       	pop	r16
    2e66:	ff 90       	pop	r15
    2e68:	ef 90       	pop	r14
    2e6a:	df 90       	pop	r13
    2e6c:	cf 90       	pop	r12
    2e6e:	bf 90       	pop	r11
    2e70:	af 90       	pop	r10
    2e72:	08 95       	ret

00002e74 <xTimerCreate>:
    2e74:	8f 92       	push	r8
    2e76:	9f 92       	push	r9
    2e78:	bf 92       	push	r11
    2e7a:	cf 92       	push	r12
    2e7c:	df 92       	push	r13
    2e7e:	ef 92       	push	r14
    2e80:	ff 92       	push	r15
    2e82:	0f 93       	push	r16
    2e84:	1f 93       	push	r17
    2e86:	cf 93       	push	r28
    2e88:	df 93       	push	r29
    2e8a:	61 15       	cp	r22, r1
    2e8c:	71 05       	cpc	r23, r1
    2e8e:	c9 f0       	breq	.+50     	; 0x2ec2 <xTimerCreate+0x4e>
    2e90:	69 01       	movw	r12, r18
    2e92:	b4 2e       	mov	r11, r20
    2e94:	7b 01       	movw	r14, r22
    2e96:	4c 01       	movw	r8, r24
    2e98:	83 e1       	ldi	r24, 0x13	; 19
    2e9a:	90 e0       	ldi	r25, 0x00	; 0
    2e9c:	ae d8       	rcall	.-3748   	; 0x1ffa <pvPortMalloc>
    2e9e:	ec 01       	movw	r28, r24
    2ea0:	89 2b       	or	r24, r25
    2ea2:	89 f0       	breq	.+34     	; 0x2ec6 <xTimerCreate+0x52>
    2ea4:	97 df       	rcall	.-210    	; 0x2dd4 <prvCheckForValidListAndQueue>
    2ea6:	88 82       	st	Y, r8
    2ea8:	99 82       	std	Y+1, r9	; 0x01
    2eaa:	ec 86       	std	Y+12, r14	; 0x0c
    2eac:	fd 86       	std	Y+13, r15	; 0x0d
    2eae:	be 86       	std	Y+14, r11	; 0x0e
    2eb0:	cf 86       	std	Y+15, r12	; 0x0f
    2eb2:	d8 8a       	std	Y+16, r13	; 0x10
    2eb4:	09 8b       	std	Y+17, r16	; 0x11
    2eb6:	1a 8b       	std	Y+18, r17	; 0x12
    2eb8:	ce 01       	movw	r24, r28
    2eba:	02 96       	adiw	r24, 0x02	; 2
    2ebc:	0e 94 13 0e 	call	0x1c26	; 0x1c26 <vListInitialiseItem>
    2ec0:	02 c0       	rjmp	.+4      	; 0x2ec6 <xTimerCreate+0x52>
    2ec2:	c0 e0       	ldi	r28, 0x00	; 0
    2ec4:	d0 e0       	ldi	r29, 0x00	; 0
    2ec6:	ce 01       	movw	r24, r28
    2ec8:	df 91       	pop	r29
    2eca:	cf 91       	pop	r28
    2ecc:	1f 91       	pop	r17
    2ece:	0f 91       	pop	r16
    2ed0:	ff 90       	pop	r15
    2ed2:	ef 90       	pop	r14
    2ed4:	df 90       	pop	r13
    2ed6:	cf 90       	pop	r12
    2ed8:	bf 90       	pop	r11
    2eda:	9f 90       	pop	r9
    2edc:	8f 90       	pop	r8
    2ede:	08 95       	ret

00002ee0 <xTimerGenericCommand>:
    2ee0:	0f 93       	push	r16
    2ee2:	1f 93       	push	r17
    2ee4:	cf 93       	push	r28
    2ee6:	df 93       	push	r29
    2ee8:	cd b7       	in	r28, 0x3d	; 61
    2eea:	de b7       	in	r29, 0x3e	; 62
    2eec:	25 97       	sbiw	r28, 0x05	; 5
    2eee:	cd bf       	out	0x3d, r28	; 61
    2ef0:	de bf       	out	0x3e, r29	; 62
    2ef2:	e0 91 ae 22 	lds	r30, 0x22AE	; 0x8022ae <xTimerQueue>
    2ef6:	f0 91 af 22 	lds	r31, 0x22AF	; 0x8022af <xTimerQueue+0x1>
    2efa:	30 97       	sbiw	r30, 0x00	; 0
    2efc:	51 f1       	breq	.+84     	; 0x2f52 <xTimerGenericCommand+0x72>
    2efe:	d9 01       	movw	r26, r18
    2f00:	69 83       	std	Y+1, r22	; 0x01
    2f02:	4a 83       	std	Y+2, r20	; 0x02
    2f04:	5b 83       	std	Y+3, r21	; 0x03
    2f06:	8c 83       	std	Y+4, r24	; 0x04
    2f08:	9d 83       	std	Y+5, r25	; 0x05
    2f0a:	66 30       	cpi	r22, 0x06	; 6
    2f0c:	d4 f4       	brge	.+52     	; 0x2f42 <xTimerGenericCommand+0x62>
    2f0e:	25 df       	rcall	.-438    	; 0x2d5a <xTaskGetSchedulerState>
    2f10:	82 30       	cpi	r24, 0x02	; 2
    2f12:	59 f4       	brne	.+22     	; 0x2f2a <xTimerGenericCommand+0x4a>
    2f14:	20 e0       	ldi	r18, 0x00	; 0
    2f16:	a8 01       	movw	r20, r16
    2f18:	be 01       	movw	r22, r28
    2f1a:	6f 5f       	subi	r22, 0xFF	; 255
    2f1c:	7f 4f       	sbci	r23, 0xFF	; 255
    2f1e:	80 91 ae 22 	lds	r24, 0x22AE	; 0x8022ae <xTimerQueue>
    2f22:	90 91 af 22 	lds	r25, 0x22AF	; 0x8022af <xTimerQueue+0x1>
    2f26:	92 d9       	rcall	.-3292   	; 0x224c <xQueueGenericSend>
    2f28:	15 c0       	rjmp	.+42     	; 0x2f54 <xTimerGenericCommand+0x74>
    2f2a:	20 e0       	ldi	r18, 0x00	; 0
    2f2c:	40 e0       	ldi	r20, 0x00	; 0
    2f2e:	50 e0       	ldi	r21, 0x00	; 0
    2f30:	be 01       	movw	r22, r28
    2f32:	6f 5f       	subi	r22, 0xFF	; 255
    2f34:	7f 4f       	sbci	r23, 0xFF	; 255
    2f36:	80 91 ae 22 	lds	r24, 0x22AE	; 0x8022ae <xTimerQueue>
    2f3a:	90 91 af 22 	lds	r25, 0x22AF	; 0x8022af <xTimerQueue+0x1>
    2f3e:	86 d9       	rcall	.-3316   	; 0x224c <xQueueGenericSend>
    2f40:	09 c0       	rjmp	.+18     	; 0x2f54 <xTimerGenericCommand+0x74>
    2f42:	20 e0       	ldi	r18, 0x00	; 0
    2f44:	ad 01       	movw	r20, r26
    2f46:	be 01       	movw	r22, r28
    2f48:	6f 5f       	subi	r22, 0xFF	; 255
    2f4a:	7f 4f       	sbci	r23, 0xFF	; 255
    2f4c:	cf 01       	movw	r24, r30
    2f4e:	0b da       	rcall	.-3050   	; 0x2366 <xQueueGenericSendFromISR>
    2f50:	01 c0       	rjmp	.+2      	; 0x2f54 <xTimerGenericCommand+0x74>
    2f52:	80 e0       	ldi	r24, 0x00	; 0
    2f54:	25 96       	adiw	r28, 0x05	; 5
    2f56:	cd bf       	out	0x3d, r28	; 61
    2f58:	de bf       	out	0x3e, r29	; 62
    2f5a:	df 91       	pop	r29
    2f5c:	cf 91       	pop	r28
    2f5e:	1f 91       	pop	r17
    2f60:	0f 91       	pop	r16
    2f62:	08 95       	ret

00002f64 <prvSampleTimeNow>:
    2f64:	af 92       	push	r10
    2f66:	bf 92       	push	r11
    2f68:	cf 92       	push	r12
    2f6a:	df 92       	push	r13
    2f6c:	ef 92       	push	r14
    2f6e:	ff 92       	push	r15
    2f70:	0f 93       	push	r16
    2f72:	1f 93       	push	r17
    2f74:	cf 93       	push	r28
    2f76:	df 93       	push	r29
    2f78:	6c 01       	movw	r12, r24
    2f7a:	53 dc       	rcall	.-1882   	; 0x2822 <xTaskGetTickCount>
    2f7c:	7c 01       	movw	r14, r24
    2f7e:	80 91 ac 22 	lds	r24, 0x22AC	; 0x8022ac <xLastTime.4459>
    2f82:	90 91 ad 22 	lds	r25, 0x22AD	; 0x8022ad <xLastTime.4459+0x1>
    2f86:	e8 16       	cp	r14, r24
    2f88:	f9 06       	cpc	r15, r25
    2f8a:	08 f0       	brcs	.+2      	; 0x2f8e <prvSampleTimeNow+0x2a>
    2f8c:	47 c0       	rjmp	.+142    	; 0x301c <prvSampleTimeNow+0xb8>
    2f8e:	2f c0       	rjmp	.+94     	; 0x2fee <prvSampleTimeNow+0x8a>
    2f90:	05 80       	ldd	r0, Z+5	; 0x05
    2f92:	f6 81       	ldd	r31, Z+6	; 0x06
    2f94:	e0 2d       	mov	r30, r0
    2f96:	a0 80       	ld	r10, Z
    2f98:	b1 80       	ldd	r11, Z+1	; 0x01
    2f9a:	c6 81       	ldd	r28, Z+6	; 0x06
    2f9c:	d7 81       	ldd	r29, Z+7	; 0x07
    2f9e:	8e 01       	movw	r16, r28
    2fa0:	0e 5f       	subi	r16, 0xFE	; 254
    2fa2:	1f 4f       	sbci	r17, 0xFF	; 255
    2fa4:	c8 01       	movw	r24, r16
    2fa6:	0e 94 69 0e 	call	0x1cd2	; 0x1cd2 <uxListRemove>
    2faa:	e9 89       	ldd	r30, Y+17	; 0x11
    2fac:	fa 89       	ldd	r31, Y+18	; 0x12
    2fae:	ce 01       	movw	r24, r28
    2fb0:	19 95       	eicall
    2fb2:	8e 85       	ldd	r24, Y+14	; 0x0e
    2fb4:	81 30       	cpi	r24, 0x01	; 1
    2fb6:	d9 f4       	brne	.+54     	; 0x2fee <prvSampleTimeNow+0x8a>
    2fb8:	8c 85       	ldd	r24, Y+12	; 0x0c
    2fba:	9d 85       	ldd	r25, Y+13	; 0x0d
    2fbc:	8a 0d       	add	r24, r10
    2fbe:	9b 1d       	adc	r25, r11
    2fc0:	a8 16       	cp	r10, r24
    2fc2:	b9 06       	cpc	r11, r25
    2fc4:	60 f4       	brcc	.+24     	; 0x2fde <prvSampleTimeNow+0x7a>
    2fc6:	8a 83       	std	Y+2, r24	; 0x02
    2fc8:	9b 83       	std	Y+3, r25	; 0x03
    2fca:	c8 87       	std	Y+8, r28	; 0x08
    2fcc:	d9 87       	std	Y+9, r29	; 0x09
    2fce:	b8 01       	movw	r22, r16
    2fd0:	80 91 b2 22 	lds	r24, 0x22B2	; 0x8022b2 <pxCurrentTimerList>
    2fd4:	90 91 b3 22 	lds	r25, 0x22B3	; 0x8022b3 <pxCurrentTimerList+0x1>
    2fd8:	0e 94 38 0e 	call	0x1c70	; 0x1c70 <vListInsert>
    2fdc:	08 c0       	rjmp	.+16     	; 0x2fee <prvSampleTimeNow+0x8a>
    2fde:	00 e0       	ldi	r16, 0x00	; 0
    2fe0:	10 e0       	ldi	r17, 0x00	; 0
    2fe2:	20 e0       	ldi	r18, 0x00	; 0
    2fe4:	30 e0       	ldi	r19, 0x00	; 0
    2fe6:	a5 01       	movw	r20, r10
    2fe8:	60 e0       	ldi	r22, 0x00	; 0
    2fea:	ce 01       	movw	r24, r28
    2fec:	79 df       	rcall	.-270    	; 0x2ee0 <xTimerGenericCommand>
    2fee:	e0 91 b2 22 	lds	r30, 0x22B2	; 0x8022b2 <pxCurrentTimerList>
    2ff2:	f0 91 b3 22 	lds	r31, 0x22B3	; 0x8022b3 <pxCurrentTimerList+0x1>
    2ff6:	80 81       	ld	r24, Z
    2ff8:	81 11       	cpse	r24, r1
    2ffa:	ca cf       	rjmp	.-108    	; 0x2f90 <prvSampleTimeNow+0x2c>
    2ffc:	80 91 b0 22 	lds	r24, 0x22B0	; 0x8022b0 <pxOverflowTimerList>
    3000:	90 91 b1 22 	lds	r25, 0x22B1	; 0x8022b1 <pxOverflowTimerList+0x1>
    3004:	80 93 b2 22 	sts	0x22B2, r24	; 0x8022b2 <pxCurrentTimerList>
    3008:	90 93 b3 22 	sts	0x22B3, r25	; 0x8022b3 <pxCurrentTimerList+0x1>
    300c:	e0 93 b0 22 	sts	0x22B0, r30	; 0x8022b0 <pxOverflowTimerList>
    3010:	f0 93 b1 22 	sts	0x22B1, r31	; 0x8022b1 <pxOverflowTimerList+0x1>
    3014:	81 e0       	ldi	r24, 0x01	; 1
    3016:	f6 01       	movw	r30, r12
    3018:	80 83       	st	Z, r24
    301a:	02 c0       	rjmp	.+4      	; 0x3020 <prvSampleTimeNow+0xbc>
    301c:	f6 01       	movw	r30, r12
    301e:	10 82       	st	Z, r1
    3020:	e0 92 ac 22 	sts	0x22AC, r14	; 0x8022ac <xLastTime.4459>
    3024:	f0 92 ad 22 	sts	0x22AD, r15	; 0x8022ad <xLastTime.4459+0x1>
    3028:	c7 01       	movw	r24, r14
    302a:	df 91       	pop	r29
    302c:	cf 91       	pop	r28
    302e:	1f 91       	pop	r17
    3030:	0f 91       	pop	r16
    3032:	ff 90       	pop	r15
    3034:	ef 90       	pop	r14
    3036:	df 90       	pop	r13
    3038:	cf 90       	pop	r12
    303a:	bf 90       	pop	r11
    303c:	af 90       	pop	r10
    303e:	08 95       	ret

00003040 <prvTimerTask>:
    3040:	cf 93       	push	r28
    3042:	df 93       	push	r29
    3044:	00 d0       	rcall	.+0      	; 0x3046 <prvTimerTask+0x6>
    3046:	00 d0       	rcall	.+0      	; 0x3048 <prvTimerTask+0x8>
    3048:	cd b7       	in	r28, 0x3d	; 61
    304a:	de b7       	in	r29, 0x3e	; 62
    304c:	ce 01       	movw	r24, r28
    304e:	01 96       	adiw	r24, 0x01	; 1
    3050:	5c 01       	movw	r10, r24
    3052:	e8 2e       	mov	r14, r24
    3054:	fb 2c       	mov	r15, r11
    3056:	e0 91 b2 22 	lds	r30, 0x22B2	; 0x8022b2 <pxCurrentTimerList>
    305a:	f0 91 b3 22 	lds	r31, 0x22B3	; 0x8022b3 <pxCurrentTimerList+0x1>
    305e:	80 81       	ld	r24, Z
    3060:	88 23       	and	r24, r24
    3062:	09 f4       	brne	.+2      	; 0x3066 <prvTimerTask+0x26>
    3064:	b6 c0       	rjmp	.+364    	; 0x31d2 <prvTimerTask+0x192>
    3066:	05 80       	ldd	r0, Z+5	; 0x05
    3068:	f6 81       	ldd	r31, Z+6	; 0x06
    306a:	e0 2d       	mov	r30, r0
    306c:	c0 80       	ld	r12, Z
    306e:	d1 80       	ldd	r13, Z+1	; 0x01
    3070:	d2 db       	rcall	.-2140   	; 0x2816 <vTaskSuspendAll>
    3072:	c5 01       	movw	r24, r10
    3074:	77 df       	rcall	.-274    	; 0x2f64 <prvSampleTimeNow>
    3076:	8c 01       	movw	r16, r24
    3078:	89 81       	ldd	r24, Y+1	; 0x01
    307a:	81 11       	cpse	r24, r1
    307c:	42 c0       	rjmp	.+132    	; 0x3102 <prvTimerTask+0xc2>
    307e:	0c 15       	cp	r16, r12
    3080:	1d 05       	cpc	r17, r13
    3082:	80 f1       	brcs	.+96     	; 0x30e4 <prvTimerTask+0xa4>
    3084:	ab dc       	rcall	.-1706   	; 0x29dc <xTaskResumeAll>
    3086:	e0 91 b2 22 	lds	r30, 0x22B2	; 0x8022b2 <pxCurrentTimerList>
    308a:	f0 91 b3 22 	lds	r31, 0x22B3	; 0x8022b3 <pxCurrentTimerList+0x1>
    308e:	05 80       	ldd	r0, Z+5	; 0x05
    3090:	f6 81       	ldd	r31, Z+6	; 0x06
    3092:	e0 2d       	mov	r30, r0
    3094:	86 80       	ldd	r8, Z+6	; 0x06
    3096:	97 80       	ldd	r9, Z+7	; 0x07
    3098:	c4 01       	movw	r24, r8
    309a:	02 96       	adiw	r24, 0x02	; 2
    309c:	0e 94 69 0e 	call	0x1cd2	; 0x1cd2 <uxListRemove>
    30a0:	d4 01       	movw	r26, r8
    30a2:	1e 96       	adiw	r26, 0x0e	; 14
    30a4:	8c 91       	ld	r24, X
    30a6:	1e 97       	sbiw	r26, 0x0e	; 14
    30a8:	81 30       	cpi	r24, 0x01	; 1
    30aa:	a1 f4       	brne	.+40     	; 0x30d4 <prvTimerTask+0x94>
    30ac:	1c 96       	adiw	r26, 0x0c	; 12
    30ae:	6d 91       	ld	r22, X+
    30b0:	7c 91       	ld	r23, X
    30b2:	1d 97       	sbiw	r26, 0x0d	; 13
    30b4:	6c 0d       	add	r22, r12
    30b6:	7d 1d       	adc	r23, r13
    30b8:	96 01       	movw	r18, r12
    30ba:	a8 01       	movw	r20, r16
    30bc:	c4 01       	movw	r24, r8
    30be:	5b de       	rcall	.-842    	; 0x2d76 <prvInsertTimerInActiveList>
    30c0:	81 30       	cpi	r24, 0x01	; 1
    30c2:	41 f4       	brne	.+16     	; 0x30d4 <prvTimerTask+0x94>
    30c4:	00 e0       	ldi	r16, 0x00	; 0
    30c6:	10 e0       	ldi	r17, 0x00	; 0
    30c8:	20 e0       	ldi	r18, 0x00	; 0
    30ca:	30 e0       	ldi	r19, 0x00	; 0
    30cc:	a6 01       	movw	r20, r12
    30ce:	60 e0       	ldi	r22, 0x00	; 0
    30d0:	c4 01       	movw	r24, r8
    30d2:	06 df       	rcall	.-500    	; 0x2ee0 <xTimerGenericCommand>
    30d4:	d4 01       	movw	r26, r8
    30d6:	51 96       	adiw	r26, 0x11	; 17
    30d8:	ed 91       	ld	r30, X+
    30da:	fc 91       	ld	r31, X
    30dc:	52 97       	sbiw	r26, 0x12	; 18
    30de:	c4 01       	movw	r24, r8
    30e0:	19 95       	eicall
    30e2:	6a c0       	rjmp	.+212    	; 0x31b8 <prvTimerTask+0x178>
    30e4:	40 e0       	ldi	r20, 0x00	; 0
    30e6:	b6 01       	movw	r22, r12
    30e8:	60 1b       	sub	r22, r16
    30ea:	71 0b       	sbc	r23, r17
    30ec:	80 91 ae 22 	lds	r24, 0x22AE	; 0x8022ae <xTimerQueue>
    30f0:	90 91 af 22 	lds	r25, 0x22AF	; 0x8022af <xTimerQueue+0x1>
    30f4:	05 da       	rcall	.-3062   	; 0x2500 <vQueueWaitForMessageRestricted>
    30f6:	72 dc       	rcall	.-1820   	; 0x29dc <xTaskResumeAll>
    30f8:	81 11       	cpse	r24, r1
    30fa:	5e c0       	rjmp	.+188    	; 0x31b8 <prvTimerTask+0x178>
    30fc:	0e 94 4b 0f 	call	0x1e96	; 0x1e96 <vPortYield>
    3100:	5b c0       	rjmp	.+182    	; 0x31b8 <prvTimerTask+0x178>
    3102:	6c dc       	rcall	.-1832   	; 0x29dc <xTaskResumeAll>
    3104:	59 c0       	rjmp	.+178    	; 0x31b8 <prvTimerTask+0x178>
    3106:	89 81       	ldd	r24, Y+1	; 0x01
    3108:	88 23       	and	r24, r24
    310a:	0c f4       	brge	.+2      	; 0x310e <prvTimerTask+0xce>
    310c:	55 c0       	rjmp	.+170    	; 0x31b8 <prvTimerTask+0x178>
    310e:	cc 80       	ldd	r12, Y+4	; 0x04
    3110:	dd 80       	ldd	r13, Y+5	; 0x05
    3112:	f6 01       	movw	r30, r12
    3114:	82 85       	ldd	r24, Z+10	; 0x0a
    3116:	93 85       	ldd	r25, Z+11	; 0x0b
    3118:	89 2b       	or	r24, r25
    311a:	21 f0       	breq	.+8      	; 0x3124 <prvTimerTask+0xe4>
    311c:	c6 01       	movw	r24, r12
    311e:	02 96       	adiw	r24, 0x02	; 2
    3120:	0e 94 69 0e 	call	0x1cd2	; 0x1cd2 <uxListRemove>
    3124:	ce 01       	movw	r24, r28
    3126:	06 96       	adiw	r24, 0x06	; 6
    3128:	1d df       	rcall	.-454    	; 0x2f64 <prvSampleTimeNow>
    312a:	ac 01       	movw	r20, r24
    312c:	89 81       	ldd	r24, Y+1	; 0x01
    312e:	08 2e       	mov	r0, r24
    3130:	00 0c       	add	r0, r0
    3132:	99 0b       	sbc	r25, r25
    3134:	aa 0b       	sbc	r26, r26
    3136:	bb 0b       	sbc	r27, r27
    3138:	8a 30       	cpi	r24, 0x0A	; 10
    313a:	91 05       	cpc	r25, r1
    313c:	08 f0       	brcs	.+2      	; 0x3140 <prvTimerTask+0x100>
    313e:	3c c0       	rjmp	.+120    	; 0x31b8 <prvTimerTask+0x178>
    3140:	fc 01       	movw	r30, r24
    3142:	88 27       	eor	r24, r24
    3144:	e2 50       	subi	r30, 0x02	; 2
    3146:	ff 4f       	sbci	r31, 0xFF	; 255
    3148:	8f 4f       	sbci	r24, 0xFF	; 255
    314a:	df c3       	rjmp	.+1982   	; 0x390a <__tablejump2__>
    314c:	2a 81       	ldd	r18, Y+2	; 0x02
    314e:	3b 81       	ldd	r19, Y+3	; 0x03
    3150:	d6 01       	movw	r26, r12
    3152:	1c 96       	adiw	r26, 0x0c	; 12
    3154:	6d 91       	ld	r22, X+
    3156:	7c 91       	ld	r23, X
    3158:	1d 97       	sbiw	r26, 0x0d	; 13
    315a:	62 0f       	add	r22, r18
    315c:	73 1f       	adc	r23, r19
    315e:	c6 01       	movw	r24, r12
    3160:	0a de       	rcall	.-1004   	; 0x2d76 <prvInsertTimerInActiveList>
    3162:	81 30       	cpi	r24, 0x01	; 1
    3164:	49 f5       	brne	.+82     	; 0x31b8 <prvTimerTask+0x178>
    3166:	d6 01       	movw	r26, r12
    3168:	51 96       	adiw	r26, 0x11	; 17
    316a:	ed 91       	ld	r30, X+
    316c:	fc 91       	ld	r31, X
    316e:	52 97       	sbiw	r26, 0x12	; 18
    3170:	c6 01       	movw	r24, r12
    3172:	19 95       	eicall
    3174:	f6 01       	movw	r30, r12
    3176:	86 85       	ldd	r24, Z+14	; 0x0e
    3178:	81 30       	cpi	r24, 0x01	; 1
    317a:	f1 f4       	brne	.+60     	; 0x31b8 <prvTimerTask+0x178>
    317c:	4a 81       	ldd	r20, Y+2	; 0x02
    317e:	5b 81       	ldd	r21, Y+3	; 0x03
    3180:	84 85       	ldd	r24, Z+12	; 0x0c
    3182:	95 85       	ldd	r25, Z+13	; 0x0d
    3184:	48 0f       	add	r20, r24
    3186:	59 1f       	adc	r21, r25
    3188:	00 e0       	ldi	r16, 0x00	; 0
    318a:	10 e0       	ldi	r17, 0x00	; 0
    318c:	20 e0       	ldi	r18, 0x00	; 0
    318e:	30 e0       	ldi	r19, 0x00	; 0
    3190:	60 e0       	ldi	r22, 0x00	; 0
    3192:	c6 01       	movw	r24, r12
    3194:	a5 de       	rcall	.-694    	; 0x2ee0 <xTimerGenericCommand>
    3196:	10 c0       	rjmp	.+32     	; 0x31b8 <prvTimerTask+0x178>
    3198:	6a 81       	ldd	r22, Y+2	; 0x02
    319a:	7b 81       	ldd	r23, Y+3	; 0x03
    319c:	d6 01       	movw	r26, r12
    319e:	1c 96       	adiw	r26, 0x0c	; 12
    31a0:	6d 93       	st	X+, r22
    31a2:	7c 93       	st	X, r23
    31a4:	1d 97       	sbiw	r26, 0x0d	; 13
    31a6:	64 0f       	add	r22, r20
    31a8:	75 1f       	adc	r23, r21
    31aa:	9a 01       	movw	r18, r20
    31ac:	c6 01       	movw	r24, r12
    31ae:	e3 dd       	rcall	.-1082   	; 0x2d76 <prvInsertTimerInActiveList>
    31b0:	03 c0       	rjmp	.+6      	; 0x31b8 <prvTimerTask+0x178>
    31b2:	c6 01       	movw	r24, r12
    31b4:	0e 94 0a 10 	call	0x2014	; 0x2014 <vPortFree>
    31b8:	20 e0       	ldi	r18, 0x00	; 0
    31ba:	40 e0       	ldi	r20, 0x00	; 0
    31bc:	50 e0       	ldi	r21, 0x00	; 0
    31be:	6e 2d       	mov	r22, r14
    31c0:	7f 2d       	mov	r23, r15
    31c2:	80 91 ae 22 	lds	r24, 0x22AE	; 0x8022ae <xTimerQueue>
    31c6:	90 91 af 22 	lds	r25, 0x22AF	; 0x8022af <xTimerQueue+0x1>
    31ca:	03 d9       	rcall	.-3578   	; 0x23d2 <xQueueGenericReceive>
    31cc:	81 11       	cpse	r24, r1
    31ce:	9b cf       	rjmp	.-202    	; 0x3106 <prvTimerTask+0xc6>
    31d0:	42 cf       	rjmp	.-380    	; 0x3056 <prvTimerTask+0x16>
    31d2:	21 db       	rcall	.-2494   	; 0x2816 <vTaskSuspendAll>
    31d4:	c5 01       	movw	r24, r10
    31d6:	c6 de       	rcall	.-628    	; 0x2f64 <prvSampleTimeNow>
    31d8:	8c 01       	movw	r16, r24
    31da:	89 81       	ldd	r24, Y+1	; 0x01
    31dc:	81 11       	cpse	r24, r1
    31de:	91 cf       	rjmp	.-222    	; 0x3102 <prvTimerTask+0xc2>
    31e0:	e0 91 b0 22 	lds	r30, 0x22B0	; 0x8022b0 <pxOverflowTimerList>
    31e4:	f0 91 b1 22 	lds	r31, 0x22B1	; 0x8022b1 <pxOverflowTimerList+0x1>
    31e8:	41 e0       	ldi	r20, 0x01	; 1
    31ea:	80 81       	ld	r24, Z
    31ec:	81 11       	cpse	r24, r1
    31ee:	40 e0       	ldi	r20, 0x00	; 0
    31f0:	c1 2c       	mov	r12, r1
    31f2:	d1 2c       	mov	r13, r1
    31f4:	78 cf       	rjmp	.-272    	; 0x30e6 <prvTimerTask+0xa6>

000031f6 <ioport_configure_port_pin>:
    31f6:	cf 93       	push	r28
    31f8:	df 93       	push	r29
    31fa:	fc 01       	movw	r30, r24
    31fc:	20 e0       	ldi	r18, 0x00	; 0
    31fe:	30 e0       	ldi	r19, 0x00	; 0
    3200:	c6 2f       	mov	r28, r22
    3202:	d0 e0       	ldi	r29, 0x00	; 0
    3204:	de 01       	movw	r26, r28
    3206:	02 2e       	mov	r0, r18
    3208:	02 c0       	rjmp	.+4      	; 0x320e <ioport_configure_port_pin+0x18>
    320a:	b5 95       	asr	r27
    320c:	a7 95       	ror	r26
    320e:	0a 94       	dec	r0
    3210:	e2 f7       	brpl	.-8      	; 0x320a <ioport_configure_port_pin+0x14>
    3212:	a0 fd       	sbrc	r26, 0
    3214:	50 8b       	std	Z+16, r21	; 0x10
    3216:	2f 5f       	subi	r18, 0xFF	; 255
    3218:	3f 4f       	sbci	r19, 0xFF	; 255
    321a:	31 96       	adiw	r30, 0x01	; 1
    321c:	28 30       	cpi	r18, 0x08	; 8
    321e:	31 05       	cpc	r19, r1
    3220:	89 f7       	brne	.-30     	; 0x3204 <ioport_configure_port_pin+0xe>
    3222:	40 ff       	sbrs	r20, 0
    3224:	0a c0       	rjmp	.+20     	; 0x323a <ioport_configure_port_pin+0x44>
    3226:	41 ff       	sbrs	r20, 1
    3228:	03 c0       	rjmp	.+6      	; 0x3230 <ioport_configure_port_pin+0x3a>
    322a:	fc 01       	movw	r30, r24
    322c:	65 83       	std	Z+5, r22	; 0x05
    322e:	02 c0       	rjmp	.+4      	; 0x3234 <ioport_configure_port_pin+0x3e>
    3230:	fc 01       	movw	r30, r24
    3232:	66 83       	std	Z+6, r22	; 0x06
    3234:	fc 01       	movw	r30, r24
    3236:	61 83       	std	Z+1, r22	; 0x01
    3238:	02 c0       	rjmp	.+4      	; 0x323e <ioport_configure_port_pin+0x48>
    323a:	fc 01       	movw	r30, r24
    323c:	62 83       	std	Z+2, r22	; 0x02
    323e:	df 91       	pop	r29
    3240:	cf 91       	pop	r28
    3242:	08 95       	ret

00003244 <board_init>:
    3244:	43 e0       	ldi	r20, 0x03	; 3
    3246:	50 e0       	ldi	r21, 0x00	; 0
    3248:	61 e0       	ldi	r22, 0x01	; 1
    324a:	80 ee       	ldi	r24, 0xE0	; 224
    324c:	97 e0       	ldi	r25, 0x07	; 7
    324e:	d3 df       	rcall	.-90     	; 0x31f6 <ioport_configure_port_pin>
    3250:	43 e0       	ldi	r20, 0x03	; 3
    3252:	50 e0       	ldi	r21, 0x00	; 0
    3254:	62 e0       	ldi	r22, 0x02	; 2
    3256:	80 ee       	ldi	r24, 0xE0	; 224
    3258:	97 e0       	ldi	r25, 0x07	; 7
    325a:	cd df       	rcall	.-102    	; 0x31f6 <ioport_configure_port_pin>
    325c:	43 e0       	ldi	r20, 0x03	; 3
    325e:	50 e0       	ldi	r21, 0x00	; 0
    3260:	60 e1       	ldi	r22, 0x10	; 16
    3262:	80 e6       	ldi	r24, 0x60	; 96
    3264:	96 e0       	ldi	r25, 0x06	; 6
    3266:	c7 df       	rcall	.-114    	; 0x31f6 <ioport_configure_port_pin>
    3268:	41 e0       	ldi	r20, 0x01	; 1
    326a:	50 e4       	ldi	r21, 0x40	; 64
    326c:	60 e2       	ldi	r22, 0x20	; 32
    326e:	80 e6       	ldi	r24, 0x60	; 96
    3270:	96 e0       	ldi	r25, 0x06	; 6
    3272:	c1 df       	rcall	.-126    	; 0x31f6 <ioport_configure_port_pin>
    3274:	40 e0       	ldi	r20, 0x00	; 0
    3276:	5b e1       	ldi	r21, 0x1B	; 27
    3278:	60 e2       	ldi	r22, 0x20	; 32
    327a:	80 e8       	ldi	r24, 0x80	; 128
    327c:	96 e0       	ldi	r25, 0x06	; 6
    327e:	bb df       	rcall	.-138    	; 0x31f6 <ioport_configure_port_pin>
    3280:	40 e0       	ldi	r20, 0x00	; 0
    3282:	5b e1       	ldi	r21, 0x1B	; 27
    3284:	62 e0       	ldi	r22, 0x02	; 2
    3286:	80 ea       	ldi	r24, 0xA0	; 160
    3288:	96 e0       	ldi	r25, 0x06	; 6
    328a:	b5 df       	rcall	.-150    	; 0x31f6 <ioport_configure_port_pin>
    328c:	40 e0       	ldi	r20, 0x00	; 0
    328e:	5b e1       	ldi	r21, 0x1B	; 27
    3290:	64 e0       	ldi	r22, 0x04	; 4
    3292:	80 ea       	ldi	r24, 0xA0	; 160
    3294:	96 e0       	ldi	r25, 0x06	; 6
    3296:	af df       	rcall	.-162    	; 0x31f6 <ioport_configure_port_pin>
    3298:	43 e0       	ldi	r20, 0x03	; 3
    329a:	50 e0       	ldi	r21, 0x00	; 0
    329c:	62 e0       	ldi	r22, 0x02	; 2
    329e:	80 e6       	ldi	r24, 0x60	; 96
    32a0:	96 e0       	ldi	r25, 0x06	; 6
    32a2:	a9 df       	rcall	.-174    	; 0x31f6 <ioport_configure_port_pin>
    32a4:	43 e0       	ldi	r20, 0x03	; 3
    32a6:	50 e0       	ldi	r21, 0x00	; 0
    32a8:	68 e0       	ldi	r22, 0x08	; 8
    32aa:	80 e6       	ldi	r24, 0x60	; 96
    32ac:	96 e0       	ldi	r25, 0x06	; 6
    32ae:	a3 df       	rcall	.-186    	; 0x31f6 <ioport_configure_port_pin>
    32b0:	43 e0       	ldi	r20, 0x03	; 3
    32b2:	50 e0       	ldi	r21, 0x00	; 0
    32b4:	68 e0       	ldi	r22, 0x08	; 8
    32b6:	80 ea       	ldi	r24, 0xA0	; 160
    32b8:	96 e0       	ldi	r25, 0x06	; 6
    32ba:	9d df       	rcall	.-198    	; 0x31f6 <ioport_configure_port_pin>
    32bc:	43 e0       	ldi	r20, 0x03	; 3
    32be:	50 e0       	ldi	r21, 0x00	; 0
    32c0:	61 e0       	ldi	r22, 0x01	; 1
    32c2:	80 e6       	ldi	r24, 0x60	; 96
    32c4:	96 e0       	ldi	r25, 0x06	; 6
    32c6:	97 df       	rcall	.-210    	; 0x31f6 <ioport_configure_port_pin>
    32c8:	43 e0       	ldi	r20, 0x03	; 3
    32ca:	50 e0       	ldi	r21, 0x00	; 0
    32cc:	68 e0       	ldi	r22, 0x08	; 8
    32ce:	80 e0       	ldi	r24, 0x00	; 0
    32d0:	96 e0       	ldi	r25, 0x06	; 6
    32d2:	91 df       	rcall	.-222    	; 0x31f6 <ioport_configure_port_pin>
    32d4:	41 e0       	ldi	r20, 0x01	; 1
    32d6:	50 e0       	ldi	r21, 0x00	; 0
    32d8:	60 e1       	ldi	r22, 0x10	; 16
    32da:	80 e8       	ldi	r24, 0x80	; 128
    32dc:	96 e0       	ldi	r25, 0x06	; 6
    32de:	8b df       	rcall	.-234    	; 0x31f6 <ioport_configure_port_pin>
    32e0:	43 e0       	ldi	r20, 0x03	; 3
    32e2:	50 e0       	ldi	r21, 0x00	; 0
    32e4:	62 e0       	ldi	r22, 0x02	; 2
    32e6:	80 e6       	ldi	r24, 0x60	; 96
    32e8:	96 e0       	ldi	r25, 0x06	; 6
    32ea:	85 df       	rcall	.-246    	; 0x31f6 <ioport_configure_port_pin>
    32ec:	43 e0       	ldi	r20, 0x03	; 3
    32ee:	50 e0       	ldi	r21, 0x00	; 0
    32f0:	68 e0       	ldi	r22, 0x08	; 8
    32f2:	80 e6       	ldi	r24, 0x60	; 96
    32f4:	96 e0       	ldi	r25, 0x06	; 6
    32f6:	7f df       	rcall	.-258    	; 0x31f6 <ioport_configure_port_pin>
    32f8:	40 e0       	ldi	r20, 0x00	; 0
    32fa:	50 e0       	ldi	r21, 0x00	; 0
    32fc:	64 e0       	ldi	r22, 0x04	; 4
    32fe:	80 e6       	ldi	r24, 0x60	; 96
    3300:	96 e0       	ldi	r25, 0x06	; 6
    3302:	79 df       	rcall	.-270    	; 0x31f6 <ioport_configure_port_pin>
    3304:	43 e0       	ldi	r20, 0x03	; 3
    3306:	50 e0       	ldi	r21, 0x00	; 0
    3308:	60 e1       	ldi	r22, 0x10	; 16
    330a:	80 ea       	ldi	r24, 0xA0	; 160
    330c:	96 e0       	ldi	r25, 0x06	; 6
    330e:	73 df       	rcall	.-282    	; 0x31f6 <ioport_configure_port_pin>
    3310:	40 e0       	ldi	r20, 0x00	; 0
    3312:	50 e0       	ldi	r21, 0x00	; 0
    3314:	61 e0       	ldi	r22, 0x01	; 1
    3316:	80 e0       	ldi	r24, 0x00	; 0
    3318:	96 e0       	ldi	r25, 0x06	; 6
    331a:	6d df       	rcall	.-294    	; 0x31f6 <ioport_configure_port_pin>
    331c:	40 e0       	ldi	r20, 0x00	; 0
    331e:	50 e0       	ldi	r21, 0x00	; 0
    3320:	64 e0       	ldi	r22, 0x04	; 4
    3322:	80 e0       	ldi	r24, 0x00	; 0
    3324:	96 e0       	ldi	r25, 0x06	; 6
    3326:	67 df       	rcall	.-306    	; 0x31f6 <ioport_configure_port_pin>
    3328:	40 e0       	ldi	r20, 0x00	; 0
    332a:	50 e0       	ldi	r21, 0x00	; 0
    332c:	62 e0       	ldi	r22, 0x02	; 2
    332e:	80 e2       	ldi	r24, 0x20	; 32
    3330:	96 e0       	ldi	r25, 0x06	; 6
    3332:	61 df       	rcall	.-318    	; 0x31f6 <ioport_configure_port_pin>
    3334:	43 e0       	ldi	r20, 0x03	; 3
    3336:	50 e0       	ldi	r21, 0x00	; 0
    3338:	68 e0       	ldi	r22, 0x08	; 8
    333a:	80 e4       	ldi	r24, 0x40	; 64
    333c:	96 e0       	ldi	r25, 0x06	; 6
    333e:	5b df       	rcall	.-330    	; 0x31f6 <ioport_configure_port_pin>
    3340:	40 e0       	ldi	r20, 0x00	; 0
    3342:	50 e0       	ldi	r21, 0x00	; 0
    3344:	64 e0       	ldi	r22, 0x04	; 4
    3346:	80 e4       	ldi	r24, 0x40	; 64
    3348:	96 e0       	ldi	r25, 0x06	; 6
    334a:	55 df       	rcall	.-342    	; 0x31f6 <ioport_configure_port_pin>
    334c:	43 e0       	ldi	r20, 0x03	; 3
    334e:	50 e0       	ldi	r21, 0x00	; 0
    3350:	68 e0       	ldi	r22, 0x08	; 8
    3352:	80 e6       	ldi	r24, 0x60	; 96
    3354:	96 e0       	ldi	r25, 0x06	; 6
    3356:	4f df       	rcall	.-354    	; 0x31f6 <ioport_configure_port_pin>
    3358:	40 e0       	ldi	r20, 0x00	; 0
    335a:	50 e0       	ldi	r21, 0x00	; 0
    335c:	64 e0       	ldi	r22, 0x04	; 4
    335e:	80 e6       	ldi	r24, 0x60	; 96
    3360:	96 e0       	ldi	r25, 0x06	; 6
    3362:	49 df       	rcall	.-366    	; 0x31f6 <ioport_configure_port_pin>
    3364:	43 e0       	ldi	r20, 0x03	; 3
    3366:	50 e0       	ldi	r21, 0x00	; 0
    3368:	68 e0       	ldi	r22, 0x08	; 8
    336a:	80 e8       	ldi	r24, 0x80	; 128
    336c:	96 e0       	ldi	r25, 0x06	; 6
    336e:	43 df       	rcall	.-378    	; 0x31f6 <ioport_configure_port_pin>
    3370:	40 e0       	ldi	r20, 0x00	; 0
    3372:	50 e0       	ldi	r21, 0x00	; 0
    3374:	64 e0       	ldi	r22, 0x04	; 4
    3376:	80 e8       	ldi	r24, 0x80	; 128
    3378:	96 e0       	ldi	r25, 0x06	; 6
    337a:	3d cf       	rjmp	.-390    	; 0x31f6 <ioport_configure_port_pin>
    337c:	08 95       	ret

0000337e <vTimerCallback>:
    337e:	80 91 f7 23 	lds	r24, 0x23F7	; 0x8023f7 <increment>
    3382:	90 91 f8 23 	lds	r25, 0x23F8	; 0x8023f8 <increment+0x1>
    3386:	a0 91 f9 23 	lds	r26, 0x23F9	; 0x8023f9 <increment+0x2>
    338a:	b0 91 fa 23 	lds	r27, 0x23FA	; 0x8023fa <increment+0x3>
    338e:	01 96       	adiw	r24, 0x01	; 1
    3390:	a1 1d       	adc	r26, r1
    3392:	b1 1d       	adc	r27, r1
    3394:	80 93 f7 23 	sts	0x23F7, r24	; 0x8023f7 <increment>
    3398:	90 93 f8 23 	sts	0x23F8, r25	; 0x8023f8 <increment+0x1>
    339c:	a0 93 f9 23 	sts	0x23F9, r26	; 0x8023f9 <increment+0x2>
    33a0:	b0 93 fa 23 	sts	0x23FA, r27	; 0x8023fa <increment+0x3>
    33a4:	08 95       	ret

000033a6 <testLamp>:
    33a6:	00 ee       	ldi	r16, 0xE0	; 224
    33a8:	17 e0       	ldi	r17, 0x07	; 7
    33aa:	c1 e0       	ldi	r28, 0x01	; 1
    33ac:	80 91 2c 23 	lds	r24, 0x232C	; 0x80232c <orang>
    33b0:	90 91 2d 23 	lds	r25, 0x232D	; 0x80232d <orang+0x1>
    33b4:	8a 30       	cpi	r24, 0x0A	; 10
    33b6:	91 05       	cpc	r25, r1
    33b8:	44 f4       	brge	.+16     	; 0x33ca <testLamp+0x24>
    33ba:	20 91 c6 22 	lds	r18, 0x22C6	; 0x8022c6 <waiting>
    33be:	30 91 c7 22 	lds	r19, 0x22C7	; 0x8022c7 <waiting+0x1>
    33c2:	2c 32       	cpi	r18, 0x2C	; 44
    33c4:	41 e0       	ldi	r20, 0x01	; 1
    33c6:	34 07       	cpc	r19, r20
    33c8:	84 f0       	brlt	.+32     	; 0x33ea <testLamp+0x44>
    33ca:	f8 01       	movw	r30, r16
    33cc:	c6 83       	std	Z+6, r28	; 0x06
    33ce:	8a ef       	ldi	r24, 0xFA	; 250
    33d0:	90 e0       	ldi	r25, 0x00	; 0
    33d2:	81 db       	rcall	.-2302   	; 0x2ad6 <vTaskDelay>
    33d4:	f8 01       	movw	r30, r16
    33d6:	c5 83       	std	Z+5, r28	; 0x05
    33d8:	10 92 2c 23 	sts	0x232C, r1	; 0x80232c <orang>
    33dc:	10 92 2d 23 	sts	0x232D, r1	; 0x80232d <orang+0x1>
    33e0:	10 92 c6 22 	sts	0x22C6, r1	; 0x8022c6 <waiting>
    33e4:	10 92 c7 22 	sts	0x22C7, r1	; 0x8022c7 <waiting+0x1>
    33e8:	09 c0       	rjmp	.+18     	; 0x33fc <testLamp+0x56>
    33ea:	01 97       	sbiw	r24, 0x01	; 1
    33ec:	09 97       	sbiw	r24, 0x09	; 9
    33ee:	30 f4       	brcc	.+12     	; 0x33fc <testLamp+0x56>
    33f0:	2f 5f       	subi	r18, 0xFF	; 255
    33f2:	3f 4f       	sbci	r19, 0xFF	; 255
    33f4:	20 93 c6 22 	sts	0x22C6, r18	; 0x8022c6 <waiting>
    33f8:	30 93 c7 22 	sts	0x22C7, r19	; 0x8022c7 <waiting+0x1>
    33fc:	82 e0       	ldi	r24, 0x02	; 2
    33fe:	90 e0       	ldi	r25, 0x00	; 0
    3400:	6a db       	rcall	.-2348   	; 0x2ad6 <vTaskDelay>
    3402:	d4 cf       	rjmp	.-88     	; 0x33ac <testLamp+0x6>

00003404 <testPot>:
    3404:	c0 e0       	ldi	r28, 0x00	; 0
    3406:	d2 e0       	ldi	r29, 0x02	; 2
    3408:	68 94       	set
    340a:	ff 24       	eor	r15, r15
    340c:	f2 f8       	bld	r15, 2
    340e:	00 e3       	ldi	r16, 0x30	; 48
    3410:	12 e0       	ldi	r17, 0x02	; 2
    3412:	ce 01       	movw	r24, r28
    3414:	0e 94 59 07 	call	0xeb2	; 0xeb2 <adc_enable>
    3418:	9f b7       	in	r25, 0x3f	; 63
    341a:	f8 94       	cli
    341c:	88 81       	ld	r24, Y
    341e:	80 61       	ori	r24, 0x10	; 16
    3420:	88 83       	st	Y, r24
    3422:	9f bf       	out	0x3f, r25	; 63
    3424:	8e 81       	ldd	r24, Y+6	; 0x06
    3426:	82 ff       	sbrs	r24, 2
    3428:	fd cf       	rjmp	.-6      	; 0x3424 <testPot+0x20>
    342a:	fe 82       	std	Y+6, r15	; 0x06
    342c:	f8 01       	movw	r30, r16
    342e:	84 81       	ldd	r24, Z+4	; 0x04
    3430:	95 81       	ldd	r25, Z+5	; 0x05
    3432:	80 93 fb 23 	sts	0x23FB, r24	; 0x8023fb <result3>
    3436:	90 93 fc 23 	sts	0x23FC, r25	; 0x8023fc <result3+0x1>
    343a:	85 e0       	ldi	r24, 0x05	; 5
    343c:	90 e0       	ldi	r25, 0x00	; 0
    343e:	4b db       	rcall	.-2410   	; 0x2ad6 <vTaskDelay>
    3440:	e8 cf       	rjmp	.-48     	; 0x3412 <testPot+0xe>

00003442 <testTempS>:
    3442:	c0 e0       	ldi	r28, 0x00	; 0
    3444:	d2 e0       	ldi	r29, 0x02	; 2
    3446:	68 94       	set
    3448:	ff 24       	eor	r15, r15
    344a:	f1 f8       	bld	r15, 1
    344c:	08 e2       	ldi	r16, 0x28	; 40
    344e:	12 e0       	ldi	r17, 0x02	; 2
    3450:	ce 01       	movw	r24, r28
    3452:	0e 94 59 07 	call	0xeb2	; 0xeb2 <adc_enable>
    3456:	9f b7       	in	r25, 0x3f	; 63
    3458:	f8 94       	cli
    345a:	88 81       	ld	r24, Y
    345c:	88 60       	ori	r24, 0x08	; 8
    345e:	88 83       	st	Y, r24
    3460:	9f bf       	out	0x3f, r25	; 63
    3462:	8e 81       	ldd	r24, Y+6	; 0x06
    3464:	81 ff       	sbrs	r24, 1
    3466:	fd cf       	rjmp	.-6      	; 0x3462 <testTempS+0x20>
    3468:	fe 82       	std	Y+6, r15	; 0x06
    346a:	f8 01       	movw	r30, r16
    346c:	84 81       	ldd	r24, Z+4	; 0x04
    346e:	95 81       	ldd	r25, Z+5	; 0x05
    3470:	80 93 fd 23 	sts	0x23FD, r24	; 0x8023fd <result2>
    3474:	90 93 fe 23 	sts	0x23FE, r25	; 0x8023fe <result2+0x1>
    3478:	85 e0       	ldi	r24, 0x05	; 5
    347a:	90 e0       	ldi	r25, 0x00	; 0
    347c:	2c db       	rcall	.-2472   	; 0x2ad6 <vTaskDelay>
    347e:	e8 cf       	rjmp	.-48     	; 0x3450 <testTempS+0xe>

00003480 <testLightS>:
    3480:	c0 e0       	ldi	r28, 0x00	; 0
    3482:	d2 e0       	ldi	r29, 0x02	; 2
    3484:	11 e0       	ldi	r17, 0x01	; 1
    3486:	ce 01       	movw	r24, r28
    3488:	0e 94 59 07 	call	0xeb2	; 0xeb2 <adc_enable>
    348c:	9f b7       	in	r25, 0x3f	; 63
    348e:	f8 94       	cli
    3490:	88 81       	ld	r24, Y
    3492:	84 60       	ori	r24, 0x04	; 4
    3494:	88 83       	st	Y, r24
    3496:	9f bf       	out	0x3f, r25	; 63
    3498:	8e 81       	ldd	r24, Y+6	; 0x06
    349a:	80 ff       	sbrs	r24, 0
    349c:	fd cf       	rjmp	.-6      	; 0x3498 <testLightS+0x18>
    349e:	1e 83       	std	Y+6, r17	; 0x06
    34a0:	8c a1       	ldd	r24, Y+36	; 0x24
    34a2:	9d a1       	ldd	r25, Y+37	; 0x25
    34a4:	80 93 ff 23 	sts	0x23FF, r24	; 0x8023ff <result>
    34a8:	90 93 00 24 	sts	0x2400, r25	; 0x802400 <result+0x1>
    34ac:	85 e0       	ldi	r24, 0x05	; 5
    34ae:	90 e0       	ldi	r25, 0x00	; 0
    34b0:	12 db       	rcall	.-2524   	; 0x2ad6 <vTaskDelay>
    34b2:	e9 cf       	rjmp	.-46     	; 0x3486 <testLightS+0x6>

000034b4 <testLCD>:
    34b4:	80 e1       	ldi	r24, 0x10	; 16
    34b6:	80 93 85 06 	sts	0x0685, r24	; 0x800685 <__TEXT_REGION_LENGTH__+0x700685>
    34ba:	0f 2e       	mov	r0, r31
    34bc:	fa e0       	ldi	r31, 0x0A	; 10
    34be:	af 2e       	mov	r10, r31
    34c0:	b1 2c       	mov	r11, r1
    34c2:	f0 2d       	mov	r31, r0
    34c4:	0f 2e       	mov	r0, r31
    34c6:	f3 e2       	ldi	r31, 0x23	; 35
    34c8:	cf 2e       	mov	r12, r31
    34ca:	f0 e2       	ldi	r31, 0x20	; 32
    34cc:	df 2e       	mov	r13, r31
    34ce:	f0 2d       	mov	r31, r0
    34d0:	0f 2e       	mov	r0, r31
    34d2:	f9 ec       	ldi	r31, 0xC9	; 201
    34d4:	ff 2e       	mov	r15, r31
    34d6:	f0 2d       	mov	r31, r0
    34d8:	ce e2       	ldi	r28, 0x2E	; 46
    34da:	d3 e2       	ldi	r29, 0x23	; 35
    34dc:	01 e3       	ldi	r16, 0x31	; 49
    34de:	10 e2       	ldi	r17, 0x20	; 32
    34e0:	80 91 c6 22 	lds	r24, 0x22C6	; 0x8022c6 <waiting>
    34e4:	90 91 c7 22 	lds	r25, 0x22C7	; 0x8022c7 <waiting+0x1>
    34e8:	b5 01       	movw	r22, r10
    34ea:	da d1       	rcall	.+948    	; 0x38a0 <__divmodhi4>
    34ec:	7f 93       	push	r23
    34ee:	6f 93       	push	r22
    34f0:	df 92       	push	r13
    34f2:	cf 92       	push	r12
    34f4:	1f 92       	push	r1
    34f6:	ff 92       	push	r15
    34f8:	df 93       	push	r29
    34fa:	cf 93       	push	r28
    34fc:	55 d3       	rcall	.+1706   	; 0x3ba8 <snprintf>
    34fe:	26 e0       	ldi	r18, 0x06	; 6
    3500:	30 e2       	ldi	r19, 0x20	; 32
    3502:	44 e1       	ldi	r20, 0x14	; 20
    3504:	60 e0       	ldi	r22, 0x00	; 0
    3506:	ce 01       	movw	r24, r28
    3508:	0e 94 7f 06 	call	0xcfe	; 0xcfe <gfx_mono_draw_string>
    350c:	80 91 2d 23 	lds	r24, 0x232D	; 0x80232d <orang+0x1>
    3510:	8f 93       	push	r24
    3512:	80 91 2c 23 	lds	r24, 0x232C	; 0x80232c <orang>
    3516:	8f 93       	push	r24
    3518:	1f 93       	push	r17
    351a:	0f 93       	push	r16
    351c:	1f 92       	push	r1
    351e:	ff 92       	push	r15
    3520:	df 93       	push	r29
    3522:	cf 93       	push	r28
    3524:	41 d3       	rcall	.+1666   	; 0x3ba8 <snprintf>
    3526:	26 e0       	ldi	r18, 0x06	; 6
    3528:	30 e2       	ldi	r19, 0x20	; 32
    352a:	40 e0       	ldi	r20, 0x00	; 0
    352c:	60 e0       	ldi	r22, 0x00	; 0
    352e:	ce 01       	movw	r24, r28
    3530:	0e 94 7f 06 	call	0xcfe	; 0xcfe <gfx_mono_draw_string>
    3534:	82 e0       	ldi	r24, 0x02	; 2
    3536:	90 e0       	ldi	r25, 0x00	; 0
    3538:	ce da       	rcall	.-2660   	; 0x2ad6 <vTaskDelay>
    353a:	8d b7       	in	r24, 0x3d	; 61
    353c:	9e b7       	in	r25, 0x3e	; 62
    353e:	40 96       	adiw	r24, 0x10	; 16
    3540:	8d bf       	out	0x3d, r24	; 61
    3542:	9e bf       	out	0x3e, r25	; 62
    3544:	cd cf       	rjmp	.-102    	; 0x34e0 <testLCD+0x2c>

00003546 <PWM_Init>:
    3546:	e0 e4       	ldi	r30, 0x40	; 64
    3548:	f6 e0       	ldi	r31, 0x06	; 6
    354a:	80 81       	ld	r24, Z
    354c:	81 60       	ori	r24, 0x01	; 1
    354e:	80 83       	st	Z, r24
    3550:	e0 e0       	ldi	r30, 0x00	; 0
    3552:	f8 e0       	ldi	r31, 0x08	; 8
    3554:	85 e0       	ldi	r24, 0x05	; 5
    3556:	80 83       	st	Z, r24
    3558:	86 e1       	ldi	r24, 0x16	; 22
    355a:	81 83       	std	Z+1, r24	; 0x01
    355c:	88 ee       	ldi	r24, 0xE8	; 232
    355e:	93 e0       	ldi	r25, 0x03	; 3
    3560:	86 a3       	std	Z+38, r24	; 0x26
    3562:	97 a3       	std	Z+39, r25	; 0x27
    3564:	87 e7       	ldi	r24, 0x77	; 119
    3566:	91 e0       	ldi	r25, 0x01	; 1
    3568:	80 a7       	std	Z+40, r24	; 0x28
    356a:	91 a7       	std	Z+41, r25	; 0x29
    356c:	08 95       	ret

0000356e <testServo>:
    356e:	eb df       	rcall	.-42     	; 0x3546 <PWM_Init>
    3570:	e0 ea       	ldi	r30, 0xA0	; 160
    3572:	f6 e0       	ldi	r31, 0x06	; 6
    3574:	c0 e0       	ldi	r28, 0x00	; 0
    3576:	d8 e0       	ldi	r29, 0x08	; 8
    3578:	6e e5       	ldi	r22, 0x5E	; 94
    357a:	71 e0       	ldi	r23, 0x01	; 1
    357c:	a0 e6       	ldi	r26, 0x60	; 96
    357e:	b6 e0       	ldi	r27, 0x06	; 6
    3580:	10 e2       	ldi	r17, 0x20	; 32
    3582:	90 e1       	ldi	r25, 0x10	; 16
    3584:	41 e0       	ldi	r20, 0x01	; 1
    3586:	50 e0       	ldi	r21, 0x00	; 0
    3588:	22 e8       	ldi	r18, 0x82	; 130
    358a:	30 e0       	ldi	r19, 0x00	; 0
    358c:	80 85       	ldd	r24, Z+8	; 0x08
    358e:	81 fd       	sbrc	r24, 1
    3590:	0c c0       	rjmp	.+24     	; 0x35aa <testServo+0x3c>
    3592:	80 85       	ldd	r24, Z+8	; 0x08
    3594:	82 ff       	sbrs	r24, 2
    3596:	09 c0       	rjmp	.+18     	; 0x35aa <testServo+0x3c>
    3598:	28 a7       	std	Y+40, r18	; 0x28
    359a:	39 a7       	std	Y+41, r19	; 0x29
    359c:	16 96       	adiw	r26, 0x06	; 6
    359e:	9c 93       	st	X, r25
    35a0:	16 97       	sbiw	r26, 0x06	; 6
    35a2:	15 96       	adiw	r26, 0x05	; 5
    35a4:	1c 93       	st	X, r17
    35a6:	15 97       	sbiw	r26, 0x05	; 5
    35a8:	f1 cf       	rjmp	.-30     	; 0x358c <testServo+0x1e>
    35aa:	80 85       	ldd	r24, Z+8	; 0x08
    35ac:	82 fd       	sbrc	r24, 2
    35ae:	0c c0       	rjmp	.+24     	; 0x35c8 <testServo+0x5a>
    35b0:	80 85       	ldd	r24, Z+8	; 0x08
    35b2:	81 ff       	sbrs	r24, 1
    35b4:	09 c0       	rjmp	.+18     	; 0x35c8 <testServo+0x5a>
    35b6:	48 a7       	std	Y+40, r20	; 0x28
    35b8:	59 a7       	std	Y+41, r21	; 0x29
    35ba:	16 96       	adiw	r26, 0x06	; 6
    35bc:	1c 93       	st	X, r17
    35be:	16 97       	sbiw	r26, 0x06	; 6
    35c0:	15 96       	adiw	r26, 0x05	; 5
    35c2:	9c 93       	st	X, r25
    35c4:	15 97       	sbiw	r26, 0x05	; 5
    35c6:	e2 cf       	rjmp	.-60     	; 0x358c <testServo+0x1e>
    35c8:	80 85       	ldd	r24, Z+8	; 0x08
    35ca:	81 ff       	sbrs	r24, 1
    35cc:	df cf       	rjmp	.-66     	; 0x358c <testServo+0x1e>
    35ce:	80 85       	ldd	r24, Z+8	; 0x08
    35d0:	82 ff       	sbrs	r24, 2
    35d2:	dc cf       	rjmp	.-72     	; 0x358c <testServo+0x1e>
    35d4:	68 a7       	std	Y+40, r22	; 0x28
    35d6:	79 a7       	std	Y+41, r23	; 0x29
    35d8:	15 96       	adiw	r26, 0x05	; 5
    35da:	1c 93       	st	X, r17
    35dc:	15 97       	sbiw	r26, 0x05	; 5
    35de:	15 96       	adiw	r26, 0x05	; 5
    35e0:	9c 93       	st	X, r25
    35e2:	15 97       	sbiw	r26, 0x05	; 5
    35e4:	d3 cf       	rjmp	.-90     	; 0x358c <testServo+0x1e>

000035e6 <setUpSerial>:
    35e6:	10 92 a7 08 	sts	0x08A7, r1	; 0x8008a7 <__TEXT_REGION_LENGTH__+0x7008a7>
    35ea:	8c e0       	ldi	r24, 0x0C	; 12
    35ec:	80 93 a6 08 	sts	0x08A6, r24	; 0x8008a6 <__TEXT_REGION_LENGTH__+0x7008a6>
    35f0:	10 92 a3 08 	sts	0x08A3, r1	; 0x8008a3 <__TEXT_REGION_LENGTH__+0x7008a3>
    35f4:	83 e0       	ldi	r24, 0x03	; 3
    35f6:	80 93 a5 08 	sts	0x08A5, r24	; 0x8008a5 <__TEXT_REGION_LENGTH__+0x7008a5>
    35fa:	88 e1       	ldi	r24, 0x18	; 24
    35fc:	80 93 a4 08 	sts	0x08A4, r24	; 0x8008a4 <__TEXT_REGION_LENGTH__+0x7008a4>
    3600:	08 95       	ret

00003602 <receiveString>:
    3602:	cf 93       	push	r28
    3604:	df 93       	push	r29
    3606:	c8 ec       	ldi	r28, 0xC8	; 200
    3608:	d2 e2       	ldi	r29, 0x22	; 34
    360a:	80 ea       	ldi	r24, 0xA0	; 160
    360c:	98 e0       	ldi	r25, 0x08	; 8
    360e:	0e 94 ef 09 	call	0x13de	; 0x13de <usart_getchar>
    3612:	8a 30       	cpi	r24, 0x0A	; 10
    3614:	11 f0       	breq	.+4      	; 0x361a <receiveString+0x18>
    3616:	89 93       	st	Y+, r24
    3618:	f8 cf       	rjmp	.-16     	; 0x360a <receiveString+0x8>
    361a:	68 ec       	ldi	r22, 0xC8	; 200
    361c:	72 e2       	ldi	r23, 0x22	; 34
    361e:	80 91 14 20 	lds	r24, 0x2014	; 0x802014 <str1>
    3622:	90 91 15 20 	lds	r25, 0x2015	; 0x802015 <str1+0x1>
    3626:	b7 d2       	rcall	.+1390   	; 0x3b96 <strcmp>
    3628:	89 2b       	or	r24, r25
    362a:	49 f4       	brne	.+18     	; 0x363e <receiveString+0x3c>
    362c:	80 91 2c 23 	lds	r24, 0x232C	; 0x80232c <orang>
    3630:	90 91 2d 23 	lds	r25, 0x232D	; 0x80232d <orang+0x1>
    3634:	01 96       	adiw	r24, 0x01	; 1
    3636:	80 93 2c 23 	sts	0x232C, r24	; 0x80232c <orang>
    363a:	90 93 2d 23 	sts	0x232D, r25	; 0x80232d <orang+0x1>
    363e:	df 91       	pop	r29
    3640:	cf 91       	pop	r28
    3642:	08 95       	ret

00003644 <receivePing>:
    3644:	de df       	rcall	.-68     	; 0x3602 <receiveString>
    3646:	85 e0       	ldi	r24, 0x05	; 5
    3648:	90 e0       	ldi	r25, 0x00	; 0
    364a:	45 da       	rcall	.-2934   	; 0x2ad6 <vTaskDelay>
    364c:	fb cf       	rjmp	.-10     	; 0x3644 <receivePing>

0000364e <main>:
    364e:	8f 92       	push	r8
    3650:	9f 92       	push	r9
    3652:	af 92       	push	r10
    3654:	bf 92       	push	r11
    3656:	cf 92       	push	r12
    3658:	df 92       	push	r13
    365a:	ef 92       	push	r14
    365c:	ff 92       	push	r15
    365e:	0f 93       	push	r16
    3660:	1f 93       	push	r17
    3662:	cf 93       	push	r28
    3664:	df 93       	push	r29
    3666:	cd b7       	in	r28, 0x3d	; 61
    3668:	de b7       	in	r29, 0x3e	; 62
    366a:	2b 97       	sbiw	r28, 0x0b	; 11
    366c:	cd bf       	out	0x3d, r28	; 61
    366e:	de bf       	out	0x3e, r29	; 62
    3670:	e9 dd       	rcall	.-1070   	; 0x3244 <board_init>
    3672:	87 e0       	ldi	r24, 0x07	; 7
    3674:	80 93 a2 00 	sts	0x00A2, r24	; 0x8000a2 <__TEXT_REGION_LENGTH__+0x7000a2>
    3678:	0e 94 3d 04 	call	0x87a	; 0x87a <sysclk_init>
    367c:	68 94       	set
    367e:	ee 24       	eor	r14, r14
    3680:	e4 f8       	bld	r14, 4
    3682:	e0 92 85 06 	sts	0x0685, r14	; 0x800685 <__TEXT_REGION_LENGTH__+0x700685>
    3686:	68 94       	set
    3688:	ff 24       	eor	r15, r15
    368a:	f3 f8       	bld	r15, 3
    368c:	f0 92 45 06 	sts	0x0645, r15	; 0x800645 <__TEXT_REGION_LENGTH__+0x700645>
    3690:	f0 92 41 06 	sts	0x0641, r15	; 0x800641 <__TEXT_REGION_LENGTH__+0x700641>
    3694:	84 e0       	ldi	r24, 0x04	; 4
    3696:	80 93 46 06 	sts	0x0646, r24	; 0x800646 <__TEXT_REGION_LENGTH__+0x700646>
    369a:	80 93 42 06 	sts	0x0642, r24	; 0x800642 <__TEXT_REGION_LENGTH__+0x700642>
    369e:	a3 df       	rcall	.-186    	; 0x35e6 <setUpSerial>
    36a0:	6d e0       	ldi	r22, 0x0D	; 13
    36a2:	70 e2       	ldi	r23, 0x20	; 32
    36a4:	80 ea       	ldi	r24, 0xA0	; 160
    36a6:	98 e0       	ldi	r25, 0x08	; 8
    36a8:	0e 94 08 0b 	call	0x1610	; 0x1610 <usart_init_rs232>
    36ac:	11 e0       	ldi	r17, 0x01	; 1
    36ae:	10 93 21 06 	sts	0x0621, r17	; 0x800621 <__TEXT_REGION_LENGTH__+0x700621>
    36b2:	be 01       	movw	r22, r28
    36b4:	6f 5f       	subi	r22, 0xFF	; 255
    36b6:	7f 4f       	sbci	r23, 0xFF	; 255
    36b8:	80 e0       	ldi	r24, 0x00	; 0
    36ba:	92 e0       	ldi	r25, 0x02	; 2
    36bc:	0e 94 50 09 	call	0x12a0	; 0x12a0 <adc_read_configuration>
    36c0:	ae 01       	movw	r20, r28
    36c2:	48 5f       	subi	r20, 0xF8	; 248
    36c4:	5f 4f       	sbci	r21, 0xFF	; 255
    36c6:	61 e0       	ldi	r22, 0x01	; 1
    36c8:	80 e0       	ldi	r24, 0x00	; 0
    36ca:	92 e0       	ldi	r25, 0x02	; 2
    36cc:	0e 94 ac 09 	call	0x1358	; 0x1358 <adcch_read_configuration>
    36d0:	9a 81       	ldd	r25, Y+2	; 0x02
    36d2:	8b 81       	ldd	r24, Y+3	; 0x03
    36d4:	8f 78       	andi	r24, 0x8F	; 143
    36d6:	80 61       	ori	r24, 0x10	; 16
    36d8:	8b 83       	std	Y+3, r24	; 0x03
    36da:	89 2f       	mov	r24, r25
    36dc:	81 7e       	andi	r24, 0xE1	; 225
    36de:	8a 83       	std	Y+2, r24	; 0x02
    36e0:	1c 82       	std	Y+4, r1	; 0x04
    36e2:	02 e0       	ldi	r16, 0x02	; 2
    36e4:	0d 83       	std	Y+5, r16	; 0x05
    36e6:	18 87       	std	Y+8, r17	; 0x08
    36e8:	19 86       	std	Y+9, r1	; 0x09
    36ea:	be 01       	movw	r22, r28
    36ec:	6f 5f       	subi	r22, 0xFF	; 255
    36ee:	7f 4f       	sbci	r23, 0xFF	; 255
    36f0:	80 e0       	ldi	r24, 0x00	; 0
    36f2:	92 e0       	ldi	r25, 0x02	; 2
    36f4:	0e 94 00 09 	call	0x1200	; 0x1200 <adc_write_configuration>
    36f8:	ae 01       	movw	r20, r28
    36fa:	48 5f       	subi	r20, 0xF8	; 248
    36fc:	5f 4f       	sbci	r21, 0xFF	; 255
    36fe:	61 e0       	ldi	r22, 0x01	; 1
    3700:	80 e0       	ldi	r24, 0x00	; 0
    3702:	92 e0       	ldi	r25, 0x02	; 2
    3704:	0e 94 73 09 	call	0x12e6	; 0x12e6 <adcch_write_configuration>
    3708:	be 01       	movw	r22, r28
    370a:	6f 5f       	subi	r22, 0xFF	; 255
    370c:	7f 4f       	sbci	r23, 0xFF	; 255
    370e:	80 e0       	ldi	r24, 0x00	; 0
    3710:	92 e0       	ldi	r25, 0x02	; 2
    3712:	0e 94 50 09 	call	0x12a0	; 0x12a0 <adc_read_configuration>
    3716:	ae 01       	movw	r20, r28
    3718:	48 5f       	subi	r20, 0xF8	; 248
    371a:	5f 4f       	sbci	r21, 0xFF	; 255
    371c:	62 e0       	ldi	r22, 0x02	; 2
    371e:	80 e0       	ldi	r24, 0x00	; 0
    3720:	92 e0       	ldi	r25, 0x02	; 2
    3722:	0e 94 ac 09 	call	0x1358	; 0x1358 <adcch_read_configuration>
    3726:	9a 81       	ldd	r25, Y+2	; 0x02
    3728:	8b 81       	ldd	r24, Y+3	; 0x03
    372a:	8f 78       	andi	r24, 0x8F	; 143
    372c:	80 61       	ori	r24, 0x10	; 16
    372e:	8b 83       	std	Y+3, r24	; 0x03
    3730:	89 2f       	mov	r24, r25
    3732:	81 7e       	andi	r24, 0xE1	; 225
    3734:	8a 83       	std	Y+2, r24	; 0x02
    3736:	1c 82       	std	Y+4, r1	; 0x04
    3738:	0d 83       	std	Y+5, r16	; 0x05
    373a:	18 87       	std	Y+8, r17	; 0x08
    373c:	f9 86       	std	Y+9, r15	; 0x09
    373e:	be 01       	movw	r22, r28
    3740:	6f 5f       	subi	r22, 0xFF	; 255
    3742:	7f 4f       	sbci	r23, 0xFF	; 255
    3744:	80 e0       	ldi	r24, 0x00	; 0
    3746:	92 e0       	ldi	r25, 0x02	; 2
    3748:	0e 94 00 09 	call	0x1200	; 0x1200 <adc_write_configuration>
    374c:	ae 01       	movw	r20, r28
    374e:	48 5f       	subi	r20, 0xF8	; 248
    3750:	5f 4f       	sbci	r21, 0xFF	; 255
    3752:	62 e0       	ldi	r22, 0x02	; 2
    3754:	80 e0       	ldi	r24, 0x00	; 0
    3756:	92 e0       	ldi	r25, 0x02	; 2
    3758:	0e 94 73 09 	call	0x12e6	; 0x12e6 <adcch_write_configuration>
    375c:	be 01       	movw	r22, r28
    375e:	6f 5f       	subi	r22, 0xFF	; 255
    3760:	7f 4f       	sbci	r23, 0xFF	; 255
    3762:	80 e0       	ldi	r24, 0x00	; 0
    3764:	92 e0       	ldi	r25, 0x02	; 2
    3766:	0e 94 50 09 	call	0x12a0	; 0x12a0 <adc_read_configuration>
    376a:	ae 01       	movw	r20, r28
    376c:	48 5f       	subi	r20, 0xF8	; 248
    376e:	5f 4f       	sbci	r21, 0xFF	; 255
    3770:	64 e0       	ldi	r22, 0x04	; 4
    3772:	80 e0       	ldi	r24, 0x00	; 0
    3774:	92 e0       	ldi	r25, 0x02	; 2
    3776:	0e 94 ac 09 	call	0x1358	; 0x1358 <adcch_read_configuration>
    377a:	9a 81       	ldd	r25, Y+2	; 0x02
    377c:	8b 81       	ldd	r24, Y+3	; 0x03
    377e:	8f 78       	andi	r24, 0x8F	; 143
    3780:	80 61       	ori	r24, 0x10	; 16
    3782:	8b 83       	std	Y+3, r24	; 0x03
    3784:	89 2f       	mov	r24, r25
    3786:	81 7e       	andi	r24, 0xE1	; 225
    3788:	8a 83       	std	Y+2, r24	; 0x02
    378a:	1c 82       	std	Y+4, r1	; 0x04
    378c:	0d 83       	std	Y+5, r16	; 0x05
    378e:	18 87       	std	Y+8, r17	; 0x08
    3790:	e9 86       	std	Y+9, r14	; 0x09
    3792:	be 01       	movw	r22, r28
    3794:	6f 5f       	subi	r22, 0xFF	; 255
    3796:	7f 4f       	sbci	r23, 0xFF	; 255
    3798:	80 e0       	ldi	r24, 0x00	; 0
    379a:	92 e0       	ldi	r25, 0x02	; 2
    379c:	0e 94 00 09 	call	0x1200	; 0x1200 <adc_write_configuration>
    37a0:	ae 01       	movw	r20, r28
    37a2:	48 5f       	subi	r20, 0xF8	; 248
    37a4:	5f 4f       	sbci	r21, 0xFF	; 255
    37a6:	64 e0       	ldi	r22, 0x04	; 4
    37a8:	80 e0       	ldi	r24, 0x00	; 0
    37aa:	92 e0       	ldi	r25, 0x02	; 2
    37ac:	0e 94 73 09 	call	0x12e6	; 0x12e6 <adcch_write_configuration>
    37b0:	0e 94 0b 05 	call	0xa16	; 0xa16 <gfx_mono_st7565r_init>
    37b4:	0f eb       	ldi	r16, 0xBF	; 191
    37b6:	19 e1       	ldi	r17, 0x19	; 25
    37b8:	20 e0       	ldi	r18, 0x00	; 0
    37ba:	30 e0       	ldi	r19, 0x00	; 0
    37bc:	41 e0       	ldi	r20, 0x01	; 1
    37be:	61 e0       	ldi	r22, 0x01	; 1
    37c0:	70 e0       	ldi	r23, 0x00	; 0
    37c2:	84 e4       	ldi	r24, 0x44	; 68
    37c4:	90 e2       	ldi	r25, 0x20	; 32
    37c6:	56 db       	rcall	.-2388   	; 0x2e74 <xTimerCreate>
    37c8:	4c 01       	movw	r8, r24
    37ca:	a1 2c       	mov	r10, r1
    37cc:	b1 2c       	mov	r11, r1
    37ce:	c1 2c       	mov	r12, r1
    37d0:	d1 2c       	mov	r13, r1
    37d2:	e1 2c       	mov	r14, r1
    37d4:	f1 2c       	mov	r15, r1
    37d6:	01 e0       	ldi	r16, 0x01	; 1
    37d8:	20 e0       	ldi	r18, 0x00	; 0
    37da:	30 e0       	ldi	r19, 0x00	; 0
    37dc:	44 ef       	ldi	r20, 0xF4	; 244
    37de:	51 e0       	ldi	r21, 0x01	; 1
    37e0:	6d e4       	ldi	r22, 0x4D	; 77
    37e2:	70 e2       	ldi	r23, 0x20	; 32
    37e4:	83 ed       	ldi	r24, 0xD3	; 211
    37e6:	99 e1       	ldi	r25, 0x19	; 25
    37e8:	0e 94 d7 12 	call	0x25ae	; 0x25ae <xTaskGenericCreate>
    37ec:	20 e0       	ldi	r18, 0x00	; 0
    37ee:	30 e0       	ldi	r19, 0x00	; 0
    37f0:	44 ef       	ldi	r20, 0xF4	; 244
    37f2:	51 e0       	ldi	r21, 0x01	; 1
    37f4:	6d e4       	ldi	r22, 0x4D	; 77
    37f6:	70 e2       	ldi	r23, 0x20	; 32
    37f8:	8a e5       	ldi	r24, 0x5A	; 90
    37fa:	9a e1       	ldi	r25, 0x1A	; 26
    37fc:	0e 94 d7 12 	call	0x25ae	; 0x25ae <xTaskGenericCreate>
    3800:	20 e0       	ldi	r18, 0x00	; 0
    3802:	30 e0       	ldi	r19, 0x00	; 0
    3804:	44 ef       	ldi	r20, 0xF4	; 244
    3806:	51 e0       	ldi	r21, 0x01	; 1
    3808:	6d e4       	ldi	r22, 0x4D	; 77
    380a:	70 e2       	ldi	r23, 0x20	; 32
    380c:	82 e2       	ldi	r24, 0x22	; 34
    380e:	9b e1       	ldi	r25, 0x1B	; 27
    3810:	0e 94 d7 12 	call	0x25ae	; 0x25ae <xTaskGenericCreate>
    3814:	20 e0       	ldi	r18, 0x00	; 0
    3816:	30 e0       	ldi	r19, 0x00	; 0
    3818:	44 ef       	ldi	r20, 0xF4	; 244
    381a:	51 e0       	ldi	r21, 0x01	; 1
    381c:	6d e4       	ldi	r22, 0x4D	; 77
    381e:	70 e2       	ldi	r23, 0x20	; 32
    3820:	80 e4       	ldi	r24, 0x40	; 64
    3822:	9a e1       	ldi	r25, 0x1A	; 26
    3824:	0e 94 d7 12 	call	0x25ae	; 0x25ae <xTaskGenericCreate>
    3828:	20 e0       	ldi	r18, 0x00	; 0
    382a:	30 e0       	ldi	r19, 0x00	; 0
    382c:	44 ef       	ldi	r20, 0xF4	; 244
    382e:	51 e0       	ldi	r21, 0x01	; 1
    3830:	6d e4       	ldi	r22, 0x4D	; 77
    3832:	70 e2       	ldi	r23, 0x20	; 32
    3834:	81 e2       	ldi	r24, 0x21	; 33
    3836:	9a e1       	ldi	r25, 0x1A	; 26
    3838:	0e 94 d7 12 	call	0x25ae	; 0x25ae <xTaskGenericCreate>
    383c:	20 e0       	ldi	r18, 0x00	; 0
    383e:	30 e0       	ldi	r19, 0x00	; 0
    3840:	44 ef       	ldi	r20, 0xF4	; 244
    3842:	51 e0       	ldi	r21, 0x01	; 1
    3844:	6d e4       	ldi	r22, 0x4D	; 77
    3846:	70 e2       	ldi	r23, 0x20	; 32
    3848:	87 eb       	ldi	r24, 0xB7	; 183
    384a:	9a e1       	ldi	r25, 0x1A	; 26
    384c:	0e 94 d7 12 	call	0x25ae	; 0x25ae <xTaskGenericCreate>
    3850:	20 e0       	ldi	r18, 0x00	; 0
    3852:	30 e0       	ldi	r19, 0x00	; 0
    3854:	44 ef       	ldi	r20, 0xF4	; 244
    3856:	51 e0       	ldi	r21, 0x01	; 1
    3858:	6d e4       	ldi	r22, 0x4D	; 77
    385a:	70 e2       	ldi	r23, 0x20	; 32
    385c:	82 e0       	ldi	r24, 0x02	; 2
    385e:	9a e1       	ldi	r25, 0x1A	; 26
    3860:	0e 94 d7 12 	call	0x25ae	; 0x25ae <xTaskGenericCreate>
    3864:	0e 94 11 14 	call	0x2822	; 0x2822 <xTaskGetTickCount>
    3868:	00 e0       	ldi	r16, 0x00	; 0
    386a:	10 e0       	ldi	r17, 0x00	; 0
    386c:	20 e0       	ldi	r18, 0x00	; 0
    386e:	30 e0       	ldi	r19, 0x00	; 0
    3870:	ac 01       	movw	r20, r24
    3872:	61 e0       	ldi	r22, 0x01	; 1
    3874:	c4 01       	movw	r24, r8
    3876:	34 db       	rcall	.-2456   	; 0x2ee0 <xTimerGenericCommand>
    3878:	0e 94 d8 13 	call	0x27b0	; 0x27b0 <vTaskStartScheduler>
    387c:	80 e0       	ldi	r24, 0x00	; 0
    387e:	90 e0       	ldi	r25, 0x00	; 0
    3880:	2b 96       	adiw	r28, 0x0b	; 11
    3882:	cd bf       	out	0x3d, r28	; 61
    3884:	de bf       	out	0x3e, r29	; 62
    3886:	df 91       	pop	r29
    3888:	cf 91       	pop	r28
    388a:	1f 91       	pop	r17
    388c:	0f 91       	pop	r16
    388e:	ff 90       	pop	r15
    3890:	ef 90       	pop	r14
    3892:	df 90       	pop	r13
    3894:	cf 90       	pop	r12
    3896:	bf 90       	pop	r11
    3898:	af 90       	pop	r10
    389a:	9f 90       	pop	r9
    389c:	8f 90       	pop	r8
    389e:	08 95       	ret

000038a0 <__divmodhi4>:
    38a0:	97 fb       	bst	r25, 7
    38a2:	07 2e       	mov	r0, r23
    38a4:	16 f4       	brtc	.+4      	; 0x38aa <__divmodhi4+0xa>
    38a6:	00 94       	com	r0
    38a8:	06 d0       	rcall	.+12     	; 0x38b6 <__divmodhi4_neg1>
    38aa:	77 fd       	sbrc	r23, 7
    38ac:	08 d0       	rcall	.+16     	; 0x38be <__divmodhi4_neg2>
    38ae:	35 d0       	rcall	.+106    	; 0x391a <__udivmodhi4>
    38b0:	07 fc       	sbrc	r0, 7
    38b2:	05 d0       	rcall	.+10     	; 0x38be <__divmodhi4_neg2>
    38b4:	3e f4       	brtc	.+14     	; 0x38c4 <__divmodhi4_exit>

000038b6 <__divmodhi4_neg1>:
    38b6:	90 95       	com	r25
    38b8:	81 95       	neg	r24
    38ba:	9f 4f       	sbci	r25, 0xFF	; 255
    38bc:	08 95       	ret

000038be <__divmodhi4_neg2>:
    38be:	70 95       	com	r23
    38c0:	61 95       	neg	r22
    38c2:	7f 4f       	sbci	r23, 0xFF	; 255

000038c4 <__divmodhi4_exit>:
    38c4:	08 95       	ret

000038c6 <__udivmodsi4>:
    38c6:	a1 e2       	ldi	r26, 0x21	; 33
    38c8:	1a 2e       	mov	r1, r26
    38ca:	aa 1b       	sub	r26, r26
    38cc:	bb 1b       	sub	r27, r27
    38ce:	fd 01       	movw	r30, r26
    38d0:	0d c0       	rjmp	.+26     	; 0x38ec <__udivmodsi4_ep>

000038d2 <__udivmodsi4_loop>:
    38d2:	aa 1f       	adc	r26, r26
    38d4:	bb 1f       	adc	r27, r27
    38d6:	ee 1f       	adc	r30, r30
    38d8:	ff 1f       	adc	r31, r31
    38da:	a2 17       	cp	r26, r18
    38dc:	b3 07       	cpc	r27, r19
    38de:	e4 07       	cpc	r30, r20
    38e0:	f5 07       	cpc	r31, r21
    38e2:	20 f0       	brcs	.+8      	; 0x38ec <__udivmodsi4_ep>
    38e4:	a2 1b       	sub	r26, r18
    38e6:	b3 0b       	sbc	r27, r19
    38e8:	e4 0b       	sbc	r30, r20
    38ea:	f5 0b       	sbc	r31, r21

000038ec <__udivmodsi4_ep>:
    38ec:	66 1f       	adc	r22, r22
    38ee:	77 1f       	adc	r23, r23
    38f0:	88 1f       	adc	r24, r24
    38f2:	99 1f       	adc	r25, r25
    38f4:	1a 94       	dec	r1
    38f6:	69 f7       	brne	.-38     	; 0x38d2 <__udivmodsi4_loop>
    38f8:	60 95       	com	r22
    38fa:	70 95       	com	r23
    38fc:	80 95       	com	r24
    38fe:	90 95       	com	r25
    3900:	9b 01       	movw	r18, r22
    3902:	ac 01       	movw	r20, r24
    3904:	bd 01       	movw	r22, r26
    3906:	cf 01       	movw	r24, r30
    3908:	08 95       	ret

0000390a <__tablejump2__>:
    390a:	ee 0f       	add	r30, r30
    390c:	ff 1f       	adc	r31, r31
    390e:	88 1f       	adc	r24, r24
    3910:	8b bf       	out	0x3b, r24	; 59
    3912:	07 90       	elpm	r0, Z+
    3914:	f6 91       	elpm	r31, Z
    3916:	e0 2d       	mov	r30, r0
    3918:	19 94       	eijmp

0000391a <__udivmodhi4>:
    391a:	aa 1b       	sub	r26, r26
    391c:	bb 1b       	sub	r27, r27
    391e:	51 e1       	ldi	r21, 0x11	; 17
    3920:	07 c0       	rjmp	.+14     	; 0x3930 <__udivmodhi4_ep>

00003922 <__udivmodhi4_loop>:
    3922:	aa 1f       	adc	r26, r26
    3924:	bb 1f       	adc	r27, r27
    3926:	a6 17       	cp	r26, r22
    3928:	b7 07       	cpc	r27, r23
    392a:	10 f0       	brcs	.+4      	; 0x3930 <__udivmodhi4_ep>
    392c:	a6 1b       	sub	r26, r22
    392e:	b7 0b       	sbc	r27, r23

00003930 <__udivmodhi4_ep>:
    3930:	88 1f       	adc	r24, r24
    3932:	99 1f       	adc	r25, r25
    3934:	5a 95       	dec	r21
    3936:	a9 f7       	brne	.-22     	; 0x3922 <__udivmodhi4_loop>
    3938:	80 95       	com	r24
    393a:	90 95       	com	r25
    393c:	bc 01       	movw	r22, r24
    393e:	cd 01       	movw	r24, r26
    3940:	08 95       	ret

00003942 <malloc>:
    3942:	0f 93       	push	r16
    3944:	1f 93       	push	r17
    3946:	cf 93       	push	r28
    3948:	df 93       	push	r29
    394a:	82 30       	cpi	r24, 0x02	; 2
    394c:	91 05       	cpc	r25, r1
    394e:	10 f4       	brcc	.+4      	; 0x3954 <malloc+0x12>
    3950:	82 e0       	ldi	r24, 0x02	; 2
    3952:	90 e0       	ldi	r25, 0x00	; 0
    3954:	e0 91 0d 24 	lds	r30, 0x240D	; 0x80240d <__flp>
    3958:	f0 91 0e 24 	lds	r31, 0x240E	; 0x80240e <__flp+0x1>
    395c:	20 e0       	ldi	r18, 0x00	; 0
    395e:	30 e0       	ldi	r19, 0x00	; 0
    3960:	a0 e0       	ldi	r26, 0x00	; 0
    3962:	b0 e0       	ldi	r27, 0x00	; 0
    3964:	30 97       	sbiw	r30, 0x00	; 0
    3966:	19 f1       	breq	.+70     	; 0x39ae <malloc+0x6c>
    3968:	40 81       	ld	r20, Z
    396a:	51 81       	ldd	r21, Z+1	; 0x01
    396c:	02 81       	ldd	r16, Z+2	; 0x02
    396e:	13 81       	ldd	r17, Z+3	; 0x03
    3970:	48 17       	cp	r20, r24
    3972:	59 07       	cpc	r21, r25
    3974:	c8 f0       	brcs	.+50     	; 0x39a8 <malloc+0x66>
    3976:	84 17       	cp	r24, r20
    3978:	95 07       	cpc	r25, r21
    397a:	69 f4       	brne	.+26     	; 0x3996 <malloc+0x54>
    397c:	10 97       	sbiw	r26, 0x00	; 0
    397e:	31 f0       	breq	.+12     	; 0x398c <malloc+0x4a>
    3980:	12 96       	adiw	r26, 0x02	; 2
    3982:	0c 93       	st	X, r16
    3984:	12 97       	sbiw	r26, 0x02	; 2
    3986:	13 96       	adiw	r26, 0x03	; 3
    3988:	1c 93       	st	X, r17
    398a:	27 c0       	rjmp	.+78     	; 0x39da <malloc+0x98>
    398c:	00 93 0d 24 	sts	0x240D, r16	; 0x80240d <__flp>
    3990:	10 93 0e 24 	sts	0x240E, r17	; 0x80240e <__flp+0x1>
    3994:	22 c0       	rjmp	.+68     	; 0x39da <malloc+0x98>
    3996:	21 15       	cp	r18, r1
    3998:	31 05       	cpc	r19, r1
    399a:	19 f0       	breq	.+6      	; 0x39a2 <malloc+0x60>
    399c:	42 17       	cp	r20, r18
    399e:	53 07       	cpc	r21, r19
    39a0:	18 f4       	brcc	.+6      	; 0x39a8 <malloc+0x66>
    39a2:	9a 01       	movw	r18, r20
    39a4:	bd 01       	movw	r22, r26
    39a6:	ef 01       	movw	r28, r30
    39a8:	df 01       	movw	r26, r30
    39aa:	f8 01       	movw	r30, r16
    39ac:	db cf       	rjmp	.-74     	; 0x3964 <malloc+0x22>
    39ae:	21 15       	cp	r18, r1
    39b0:	31 05       	cpc	r19, r1
    39b2:	f9 f0       	breq	.+62     	; 0x39f2 <malloc+0xb0>
    39b4:	28 1b       	sub	r18, r24
    39b6:	39 0b       	sbc	r19, r25
    39b8:	24 30       	cpi	r18, 0x04	; 4
    39ba:	31 05       	cpc	r19, r1
    39bc:	80 f4       	brcc	.+32     	; 0x39de <malloc+0x9c>
    39be:	8a 81       	ldd	r24, Y+2	; 0x02
    39c0:	9b 81       	ldd	r25, Y+3	; 0x03
    39c2:	61 15       	cp	r22, r1
    39c4:	71 05       	cpc	r23, r1
    39c6:	21 f0       	breq	.+8      	; 0x39d0 <malloc+0x8e>
    39c8:	fb 01       	movw	r30, r22
    39ca:	82 83       	std	Z+2, r24	; 0x02
    39cc:	93 83       	std	Z+3, r25	; 0x03
    39ce:	04 c0       	rjmp	.+8      	; 0x39d8 <malloc+0x96>
    39d0:	80 93 0d 24 	sts	0x240D, r24	; 0x80240d <__flp>
    39d4:	90 93 0e 24 	sts	0x240E, r25	; 0x80240e <__flp+0x1>
    39d8:	fe 01       	movw	r30, r28
    39da:	32 96       	adiw	r30, 0x02	; 2
    39dc:	44 c0       	rjmp	.+136    	; 0x3a66 <malloc+0x124>
    39de:	fe 01       	movw	r30, r28
    39e0:	e2 0f       	add	r30, r18
    39e2:	f3 1f       	adc	r31, r19
    39e4:	81 93       	st	Z+, r24
    39e6:	91 93       	st	Z+, r25
    39e8:	22 50       	subi	r18, 0x02	; 2
    39ea:	31 09       	sbc	r19, r1
    39ec:	28 83       	st	Y, r18
    39ee:	39 83       	std	Y+1, r19	; 0x01
    39f0:	3a c0       	rjmp	.+116    	; 0x3a66 <malloc+0x124>
    39f2:	20 91 0b 24 	lds	r18, 0x240B	; 0x80240b <__brkval>
    39f6:	30 91 0c 24 	lds	r19, 0x240C	; 0x80240c <__brkval+0x1>
    39fa:	23 2b       	or	r18, r19
    39fc:	41 f4       	brne	.+16     	; 0x3a0e <malloc+0xcc>
    39fe:	20 91 02 20 	lds	r18, 0x2002	; 0x802002 <__malloc_heap_start>
    3a02:	30 91 03 20 	lds	r19, 0x2003	; 0x802003 <__malloc_heap_start+0x1>
    3a06:	20 93 0b 24 	sts	0x240B, r18	; 0x80240b <__brkval>
    3a0a:	30 93 0c 24 	sts	0x240C, r19	; 0x80240c <__brkval+0x1>
    3a0e:	20 91 00 20 	lds	r18, 0x2000	; 0x802000 <__data_start>
    3a12:	30 91 01 20 	lds	r19, 0x2001	; 0x802001 <__data_start+0x1>
    3a16:	21 15       	cp	r18, r1
    3a18:	31 05       	cpc	r19, r1
    3a1a:	41 f4       	brne	.+16     	; 0x3a2c <malloc+0xea>
    3a1c:	2d b7       	in	r18, 0x3d	; 61
    3a1e:	3e b7       	in	r19, 0x3e	; 62
    3a20:	40 91 04 20 	lds	r20, 0x2004	; 0x802004 <__malloc_margin>
    3a24:	50 91 05 20 	lds	r21, 0x2005	; 0x802005 <__malloc_margin+0x1>
    3a28:	24 1b       	sub	r18, r20
    3a2a:	35 0b       	sbc	r19, r21
    3a2c:	e0 91 0b 24 	lds	r30, 0x240B	; 0x80240b <__brkval>
    3a30:	f0 91 0c 24 	lds	r31, 0x240C	; 0x80240c <__brkval+0x1>
    3a34:	e2 17       	cp	r30, r18
    3a36:	f3 07       	cpc	r31, r19
    3a38:	a0 f4       	brcc	.+40     	; 0x3a62 <malloc+0x120>
    3a3a:	2e 1b       	sub	r18, r30
    3a3c:	3f 0b       	sbc	r19, r31
    3a3e:	28 17       	cp	r18, r24
    3a40:	39 07       	cpc	r19, r25
    3a42:	78 f0       	brcs	.+30     	; 0x3a62 <malloc+0x120>
    3a44:	ac 01       	movw	r20, r24
    3a46:	4e 5f       	subi	r20, 0xFE	; 254
    3a48:	5f 4f       	sbci	r21, 0xFF	; 255
    3a4a:	24 17       	cp	r18, r20
    3a4c:	35 07       	cpc	r19, r21
    3a4e:	48 f0       	brcs	.+18     	; 0x3a62 <malloc+0x120>
    3a50:	4e 0f       	add	r20, r30
    3a52:	5f 1f       	adc	r21, r31
    3a54:	40 93 0b 24 	sts	0x240B, r20	; 0x80240b <__brkval>
    3a58:	50 93 0c 24 	sts	0x240C, r21	; 0x80240c <__brkval+0x1>
    3a5c:	81 93       	st	Z+, r24
    3a5e:	91 93       	st	Z+, r25
    3a60:	02 c0       	rjmp	.+4      	; 0x3a66 <malloc+0x124>
    3a62:	e0 e0       	ldi	r30, 0x00	; 0
    3a64:	f0 e0       	ldi	r31, 0x00	; 0
    3a66:	cf 01       	movw	r24, r30
    3a68:	df 91       	pop	r29
    3a6a:	cf 91       	pop	r28
    3a6c:	1f 91       	pop	r17
    3a6e:	0f 91       	pop	r16
    3a70:	08 95       	ret

00003a72 <free>:
    3a72:	cf 93       	push	r28
    3a74:	df 93       	push	r29
    3a76:	00 97       	sbiw	r24, 0x00	; 0
    3a78:	09 f4       	brne	.+2      	; 0x3a7c <free+0xa>
    3a7a:	81 c0       	rjmp	.+258    	; 0x3b7e <free+0x10c>
    3a7c:	fc 01       	movw	r30, r24
    3a7e:	32 97       	sbiw	r30, 0x02	; 2
    3a80:	12 82       	std	Z+2, r1	; 0x02
    3a82:	13 82       	std	Z+3, r1	; 0x03
    3a84:	a0 91 0d 24 	lds	r26, 0x240D	; 0x80240d <__flp>
    3a88:	b0 91 0e 24 	lds	r27, 0x240E	; 0x80240e <__flp+0x1>
    3a8c:	10 97       	sbiw	r26, 0x00	; 0
    3a8e:	81 f4       	brne	.+32     	; 0x3ab0 <free+0x3e>
    3a90:	20 81       	ld	r18, Z
    3a92:	31 81       	ldd	r19, Z+1	; 0x01
    3a94:	82 0f       	add	r24, r18
    3a96:	93 1f       	adc	r25, r19
    3a98:	20 91 0b 24 	lds	r18, 0x240B	; 0x80240b <__brkval>
    3a9c:	30 91 0c 24 	lds	r19, 0x240C	; 0x80240c <__brkval+0x1>
    3aa0:	28 17       	cp	r18, r24
    3aa2:	39 07       	cpc	r19, r25
    3aa4:	51 f5       	brne	.+84     	; 0x3afa <free+0x88>
    3aa6:	e0 93 0b 24 	sts	0x240B, r30	; 0x80240b <__brkval>
    3aaa:	f0 93 0c 24 	sts	0x240C, r31	; 0x80240c <__brkval+0x1>
    3aae:	67 c0       	rjmp	.+206    	; 0x3b7e <free+0x10c>
    3ab0:	ed 01       	movw	r28, r26
    3ab2:	20 e0       	ldi	r18, 0x00	; 0
    3ab4:	30 e0       	ldi	r19, 0x00	; 0
    3ab6:	ce 17       	cp	r28, r30
    3ab8:	df 07       	cpc	r29, r31
    3aba:	40 f4       	brcc	.+16     	; 0x3acc <free+0x5a>
    3abc:	4a 81       	ldd	r20, Y+2	; 0x02
    3abe:	5b 81       	ldd	r21, Y+3	; 0x03
    3ac0:	9e 01       	movw	r18, r28
    3ac2:	41 15       	cp	r20, r1
    3ac4:	51 05       	cpc	r21, r1
    3ac6:	f1 f0       	breq	.+60     	; 0x3b04 <free+0x92>
    3ac8:	ea 01       	movw	r28, r20
    3aca:	f5 cf       	rjmp	.-22     	; 0x3ab6 <free+0x44>
    3acc:	c2 83       	std	Z+2, r28	; 0x02
    3ace:	d3 83       	std	Z+3, r29	; 0x03
    3ad0:	40 81       	ld	r20, Z
    3ad2:	51 81       	ldd	r21, Z+1	; 0x01
    3ad4:	84 0f       	add	r24, r20
    3ad6:	95 1f       	adc	r25, r21
    3ad8:	c8 17       	cp	r28, r24
    3ada:	d9 07       	cpc	r29, r25
    3adc:	59 f4       	brne	.+22     	; 0x3af4 <free+0x82>
    3ade:	88 81       	ld	r24, Y
    3ae0:	99 81       	ldd	r25, Y+1	; 0x01
    3ae2:	84 0f       	add	r24, r20
    3ae4:	95 1f       	adc	r25, r21
    3ae6:	02 96       	adiw	r24, 0x02	; 2
    3ae8:	80 83       	st	Z, r24
    3aea:	91 83       	std	Z+1, r25	; 0x01
    3aec:	8a 81       	ldd	r24, Y+2	; 0x02
    3aee:	9b 81       	ldd	r25, Y+3	; 0x03
    3af0:	82 83       	std	Z+2, r24	; 0x02
    3af2:	93 83       	std	Z+3, r25	; 0x03
    3af4:	21 15       	cp	r18, r1
    3af6:	31 05       	cpc	r19, r1
    3af8:	29 f4       	brne	.+10     	; 0x3b04 <free+0x92>
    3afa:	e0 93 0d 24 	sts	0x240D, r30	; 0x80240d <__flp>
    3afe:	f0 93 0e 24 	sts	0x240E, r31	; 0x80240e <__flp+0x1>
    3b02:	3d c0       	rjmp	.+122    	; 0x3b7e <free+0x10c>
    3b04:	e9 01       	movw	r28, r18
    3b06:	ea 83       	std	Y+2, r30	; 0x02
    3b08:	fb 83       	std	Y+3, r31	; 0x03
    3b0a:	49 91       	ld	r20, Y+
    3b0c:	59 91       	ld	r21, Y+
    3b0e:	c4 0f       	add	r28, r20
    3b10:	d5 1f       	adc	r29, r21
    3b12:	ec 17       	cp	r30, r28
    3b14:	fd 07       	cpc	r31, r29
    3b16:	61 f4       	brne	.+24     	; 0x3b30 <free+0xbe>
    3b18:	80 81       	ld	r24, Z
    3b1a:	91 81       	ldd	r25, Z+1	; 0x01
    3b1c:	84 0f       	add	r24, r20
    3b1e:	95 1f       	adc	r25, r21
    3b20:	02 96       	adiw	r24, 0x02	; 2
    3b22:	e9 01       	movw	r28, r18
    3b24:	88 83       	st	Y, r24
    3b26:	99 83       	std	Y+1, r25	; 0x01
    3b28:	82 81       	ldd	r24, Z+2	; 0x02
    3b2a:	93 81       	ldd	r25, Z+3	; 0x03
    3b2c:	8a 83       	std	Y+2, r24	; 0x02
    3b2e:	9b 83       	std	Y+3, r25	; 0x03
    3b30:	e0 e0       	ldi	r30, 0x00	; 0
    3b32:	f0 e0       	ldi	r31, 0x00	; 0
    3b34:	12 96       	adiw	r26, 0x02	; 2
    3b36:	8d 91       	ld	r24, X+
    3b38:	9c 91       	ld	r25, X
    3b3a:	13 97       	sbiw	r26, 0x03	; 3
    3b3c:	00 97       	sbiw	r24, 0x00	; 0
    3b3e:	19 f0       	breq	.+6      	; 0x3b46 <free+0xd4>
    3b40:	fd 01       	movw	r30, r26
    3b42:	dc 01       	movw	r26, r24
    3b44:	f7 cf       	rjmp	.-18     	; 0x3b34 <free+0xc2>
    3b46:	8d 91       	ld	r24, X+
    3b48:	9c 91       	ld	r25, X
    3b4a:	11 97       	sbiw	r26, 0x01	; 1
    3b4c:	9d 01       	movw	r18, r26
    3b4e:	2e 5f       	subi	r18, 0xFE	; 254
    3b50:	3f 4f       	sbci	r19, 0xFF	; 255
    3b52:	82 0f       	add	r24, r18
    3b54:	93 1f       	adc	r25, r19
    3b56:	20 91 0b 24 	lds	r18, 0x240B	; 0x80240b <__brkval>
    3b5a:	30 91 0c 24 	lds	r19, 0x240C	; 0x80240c <__brkval+0x1>
    3b5e:	28 17       	cp	r18, r24
    3b60:	39 07       	cpc	r19, r25
    3b62:	69 f4       	brne	.+26     	; 0x3b7e <free+0x10c>
    3b64:	30 97       	sbiw	r30, 0x00	; 0
    3b66:	29 f4       	brne	.+10     	; 0x3b72 <free+0x100>
    3b68:	10 92 0d 24 	sts	0x240D, r1	; 0x80240d <__flp>
    3b6c:	10 92 0e 24 	sts	0x240E, r1	; 0x80240e <__flp+0x1>
    3b70:	02 c0       	rjmp	.+4      	; 0x3b76 <free+0x104>
    3b72:	12 82       	std	Z+2, r1	; 0x02
    3b74:	13 82       	std	Z+3, r1	; 0x03
    3b76:	a0 93 0b 24 	sts	0x240B, r26	; 0x80240b <__brkval>
    3b7a:	b0 93 0c 24 	sts	0x240C, r27	; 0x80240c <__brkval+0x1>
    3b7e:	df 91       	pop	r29
    3b80:	cf 91       	pop	r28
    3b82:	08 95       	ret

00003b84 <memcpy>:
    3b84:	fb 01       	movw	r30, r22
    3b86:	dc 01       	movw	r26, r24
    3b88:	02 c0       	rjmp	.+4      	; 0x3b8e <memcpy+0xa>
    3b8a:	01 90       	ld	r0, Z+
    3b8c:	0d 92       	st	X+, r0
    3b8e:	41 50       	subi	r20, 0x01	; 1
    3b90:	50 40       	sbci	r21, 0x00	; 0
    3b92:	d8 f7       	brcc	.-10     	; 0x3b8a <memcpy+0x6>
    3b94:	08 95       	ret

00003b96 <strcmp>:
    3b96:	fb 01       	movw	r30, r22
    3b98:	dc 01       	movw	r26, r24
    3b9a:	8d 91       	ld	r24, X+
    3b9c:	01 90       	ld	r0, Z+
    3b9e:	80 19       	sub	r24, r0
    3ba0:	01 10       	cpse	r0, r1
    3ba2:	d9 f3       	breq	.-10     	; 0x3b9a <strcmp+0x4>
    3ba4:	99 0b       	sbc	r25, r25
    3ba6:	08 95       	ret

00003ba8 <snprintf>:
    3ba8:	0f 93       	push	r16
    3baa:	1f 93       	push	r17
    3bac:	cf 93       	push	r28
    3bae:	df 93       	push	r29
    3bb0:	cd b7       	in	r28, 0x3d	; 61
    3bb2:	de b7       	in	r29, 0x3e	; 62
    3bb4:	2e 97       	sbiw	r28, 0x0e	; 14
    3bb6:	cd bf       	out	0x3d, r28	; 61
    3bb8:	de bf       	out	0x3e, r29	; 62
    3bba:	0e 89       	ldd	r16, Y+22	; 0x16
    3bbc:	1f 89       	ldd	r17, Y+23	; 0x17
    3bbe:	88 8d       	ldd	r24, Y+24	; 0x18
    3bc0:	99 8d       	ldd	r25, Y+25	; 0x19
    3bc2:	26 e0       	ldi	r18, 0x06	; 6
    3bc4:	2c 83       	std	Y+4, r18	; 0x04
    3bc6:	09 83       	std	Y+1, r16	; 0x01
    3bc8:	1a 83       	std	Y+2, r17	; 0x02
    3bca:	97 ff       	sbrs	r25, 7
    3bcc:	02 c0       	rjmp	.+4      	; 0x3bd2 <snprintf+0x2a>
    3bce:	80 e0       	ldi	r24, 0x00	; 0
    3bd0:	90 e8       	ldi	r25, 0x80	; 128
    3bd2:	01 97       	sbiw	r24, 0x01	; 1
    3bd4:	8d 83       	std	Y+5, r24	; 0x05
    3bd6:	9e 83       	std	Y+6, r25	; 0x06
    3bd8:	ae 01       	movw	r20, r28
    3bda:	44 5e       	subi	r20, 0xE4	; 228
    3bdc:	5f 4f       	sbci	r21, 0xFF	; 255
    3bde:	6a 8d       	ldd	r22, Y+26	; 0x1a
    3be0:	7b 8d       	ldd	r23, Y+27	; 0x1b
    3be2:	ce 01       	movw	r24, r28
    3be4:	01 96       	adiw	r24, 0x01	; 1
    3be6:	16 d0       	rcall	.+44     	; 0x3c14 <vfprintf>
    3be8:	4d 81       	ldd	r20, Y+5	; 0x05
    3bea:	5e 81       	ldd	r21, Y+6	; 0x06
    3bec:	57 fd       	sbrc	r21, 7
    3bee:	0a c0       	rjmp	.+20     	; 0x3c04 <snprintf+0x5c>
    3bf0:	2f 81       	ldd	r18, Y+7	; 0x07
    3bf2:	38 85       	ldd	r19, Y+8	; 0x08
    3bf4:	42 17       	cp	r20, r18
    3bf6:	53 07       	cpc	r21, r19
    3bf8:	0c f4       	brge	.+2      	; 0x3bfc <snprintf+0x54>
    3bfa:	9a 01       	movw	r18, r20
    3bfc:	f8 01       	movw	r30, r16
    3bfe:	e2 0f       	add	r30, r18
    3c00:	f3 1f       	adc	r31, r19
    3c02:	10 82       	st	Z, r1
    3c04:	2e 96       	adiw	r28, 0x0e	; 14
    3c06:	cd bf       	out	0x3d, r28	; 61
    3c08:	de bf       	out	0x3e, r29	; 62
    3c0a:	df 91       	pop	r29
    3c0c:	cf 91       	pop	r28
    3c0e:	1f 91       	pop	r17
    3c10:	0f 91       	pop	r16
    3c12:	08 95       	ret

00003c14 <vfprintf>:
    3c14:	2f 92       	push	r2
    3c16:	3f 92       	push	r3
    3c18:	4f 92       	push	r4
    3c1a:	5f 92       	push	r5
    3c1c:	6f 92       	push	r6
    3c1e:	7f 92       	push	r7
    3c20:	8f 92       	push	r8
    3c22:	9f 92       	push	r9
    3c24:	af 92       	push	r10
    3c26:	bf 92       	push	r11
    3c28:	cf 92       	push	r12
    3c2a:	df 92       	push	r13
    3c2c:	ef 92       	push	r14
    3c2e:	ff 92       	push	r15
    3c30:	0f 93       	push	r16
    3c32:	1f 93       	push	r17
    3c34:	cf 93       	push	r28
    3c36:	df 93       	push	r29
    3c38:	cd b7       	in	r28, 0x3d	; 61
    3c3a:	de b7       	in	r29, 0x3e	; 62
    3c3c:	2b 97       	sbiw	r28, 0x0b	; 11
    3c3e:	cd bf       	out	0x3d, r28	; 61
    3c40:	de bf       	out	0x3e, r29	; 62
    3c42:	6c 01       	movw	r12, r24
    3c44:	7b 01       	movw	r14, r22
    3c46:	8a 01       	movw	r16, r20
    3c48:	fc 01       	movw	r30, r24
    3c4a:	16 82       	std	Z+6, r1	; 0x06
    3c4c:	17 82       	std	Z+7, r1	; 0x07
    3c4e:	83 81       	ldd	r24, Z+3	; 0x03
    3c50:	81 ff       	sbrs	r24, 1
    3c52:	bf c1       	rjmp	.+894    	; 0x3fd2 <vfprintf+0x3be>
    3c54:	ce 01       	movw	r24, r28
    3c56:	01 96       	adiw	r24, 0x01	; 1
    3c58:	3c 01       	movw	r6, r24
    3c5a:	f6 01       	movw	r30, r12
    3c5c:	93 81       	ldd	r25, Z+3	; 0x03
    3c5e:	f7 01       	movw	r30, r14
    3c60:	93 fd       	sbrc	r25, 3
    3c62:	85 91       	lpm	r24, Z+
    3c64:	93 ff       	sbrs	r25, 3
    3c66:	81 91       	ld	r24, Z+
    3c68:	7f 01       	movw	r14, r30
    3c6a:	88 23       	and	r24, r24
    3c6c:	09 f4       	brne	.+2      	; 0x3c70 <vfprintf+0x5c>
    3c6e:	ad c1       	rjmp	.+858    	; 0x3fca <vfprintf+0x3b6>
    3c70:	85 32       	cpi	r24, 0x25	; 37
    3c72:	39 f4       	brne	.+14     	; 0x3c82 <vfprintf+0x6e>
    3c74:	93 fd       	sbrc	r25, 3
    3c76:	85 91       	lpm	r24, Z+
    3c78:	93 ff       	sbrs	r25, 3
    3c7a:	81 91       	ld	r24, Z+
    3c7c:	7f 01       	movw	r14, r30
    3c7e:	85 32       	cpi	r24, 0x25	; 37
    3c80:	21 f4       	brne	.+8      	; 0x3c8a <vfprintf+0x76>
    3c82:	b6 01       	movw	r22, r12
    3c84:	90 e0       	ldi	r25, 0x00	; 0
    3c86:	d3 d1       	rcall	.+934    	; 0x402e <fputc>
    3c88:	e8 cf       	rjmp	.-48     	; 0x3c5a <vfprintf+0x46>
    3c8a:	91 2c       	mov	r9, r1
    3c8c:	21 2c       	mov	r2, r1
    3c8e:	31 2c       	mov	r3, r1
    3c90:	ff e1       	ldi	r31, 0x1F	; 31
    3c92:	f3 15       	cp	r31, r3
    3c94:	d8 f0       	brcs	.+54     	; 0x3ccc <vfprintf+0xb8>
    3c96:	8b 32       	cpi	r24, 0x2B	; 43
    3c98:	79 f0       	breq	.+30     	; 0x3cb8 <vfprintf+0xa4>
    3c9a:	38 f4       	brcc	.+14     	; 0x3caa <vfprintf+0x96>
    3c9c:	80 32       	cpi	r24, 0x20	; 32
    3c9e:	79 f0       	breq	.+30     	; 0x3cbe <vfprintf+0xaa>
    3ca0:	83 32       	cpi	r24, 0x23	; 35
    3ca2:	a1 f4       	brne	.+40     	; 0x3ccc <vfprintf+0xb8>
    3ca4:	23 2d       	mov	r18, r3
    3ca6:	20 61       	ori	r18, 0x10	; 16
    3ca8:	1d c0       	rjmp	.+58     	; 0x3ce4 <vfprintf+0xd0>
    3caa:	8d 32       	cpi	r24, 0x2D	; 45
    3cac:	61 f0       	breq	.+24     	; 0x3cc6 <vfprintf+0xb2>
    3cae:	80 33       	cpi	r24, 0x30	; 48
    3cb0:	69 f4       	brne	.+26     	; 0x3ccc <vfprintf+0xb8>
    3cb2:	23 2d       	mov	r18, r3
    3cb4:	21 60       	ori	r18, 0x01	; 1
    3cb6:	16 c0       	rjmp	.+44     	; 0x3ce4 <vfprintf+0xd0>
    3cb8:	83 2d       	mov	r24, r3
    3cba:	82 60       	ori	r24, 0x02	; 2
    3cbc:	38 2e       	mov	r3, r24
    3cbe:	e3 2d       	mov	r30, r3
    3cc0:	e4 60       	ori	r30, 0x04	; 4
    3cc2:	3e 2e       	mov	r3, r30
    3cc4:	2a c0       	rjmp	.+84     	; 0x3d1a <vfprintf+0x106>
    3cc6:	f3 2d       	mov	r31, r3
    3cc8:	f8 60       	ori	r31, 0x08	; 8
    3cca:	1d c0       	rjmp	.+58     	; 0x3d06 <vfprintf+0xf2>
    3ccc:	37 fc       	sbrc	r3, 7
    3cce:	2d c0       	rjmp	.+90     	; 0x3d2a <vfprintf+0x116>
    3cd0:	20 ed       	ldi	r18, 0xD0	; 208
    3cd2:	28 0f       	add	r18, r24
    3cd4:	2a 30       	cpi	r18, 0x0A	; 10
    3cd6:	40 f0       	brcs	.+16     	; 0x3ce8 <vfprintf+0xd4>
    3cd8:	8e 32       	cpi	r24, 0x2E	; 46
    3cda:	b9 f4       	brne	.+46     	; 0x3d0a <vfprintf+0xf6>
    3cdc:	36 fc       	sbrc	r3, 6
    3cde:	75 c1       	rjmp	.+746    	; 0x3fca <vfprintf+0x3b6>
    3ce0:	23 2d       	mov	r18, r3
    3ce2:	20 64       	ori	r18, 0x40	; 64
    3ce4:	32 2e       	mov	r3, r18
    3ce6:	19 c0       	rjmp	.+50     	; 0x3d1a <vfprintf+0x106>
    3ce8:	36 fe       	sbrs	r3, 6
    3cea:	06 c0       	rjmp	.+12     	; 0x3cf8 <vfprintf+0xe4>
    3cec:	8a e0       	ldi	r24, 0x0A	; 10
    3cee:	98 9e       	mul	r9, r24
    3cf0:	20 0d       	add	r18, r0
    3cf2:	11 24       	eor	r1, r1
    3cf4:	92 2e       	mov	r9, r18
    3cf6:	11 c0       	rjmp	.+34     	; 0x3d1a <vfprintf+0x106>
    3cf8:	ea e0       	ldi	r30, 0x0A	; 10
    3cfa:	2e 9e       	mul	r2, r30
    3cfc:	20 0d       	add	r18, r0
    3cfe:	11 24       	eor	r1, r1
    3d00:	22 2e       	mov	r2, r18
    3d02:	f3 2d       	mov	r31, r3
    3d04:	f0 62       	ori	r31, 0x20	; 32
    3d06:	3f 2e       	mov	r3, r31
    3d08:	08 c0       	rjmp	.+16     	; 0x3d1a <vfprintf+0x106>
    3d0a:	8c 36       	cpi	r24, 0x6C	; 108
    3d0c:	21 f4       	brne	.+8      	; 0x3d16 <vfprintf+0x102>
    3d0e:	83 2d       	mov	r24, r3
    3d10:	80 68       	ori	r24, 0x80	; 128
    3d12:	38 2e       	mov	r3, r24
    3d14:	02 c0       	rjmp	.+4      	; 0x3d1a <vfprintf+0x106>
    3d16:	88 36       	cpi	r24, 0x68	; 104
    3d18:	41 f4       	brne	.+16     	; 0x3d2a <vfprintf+0x116>
    3d1a:	f7 01       	movw	r30, r14
    3d1c:	93 fd       	sbrc	r25, 3
    3d1e:	85 91       	lpm	r24, Z+
    3d20:	93 ff       	sbrs	r25, 3
    3d22:	81 91       	ld	r24, Z+
    3d24:	7f 01       	movw	r14, r30
    3d26:	81 11       	cpse	r24, r1
    3d28:	b3 cf       	rjmp	.-154    	; 0x3c90 <vfprintf+0x7c>
    3d2a:	98 2f       	mov	r25, r24
    3d2c:	9f 7d       	andi	r25, 0xDF	; 223
    3d2e:	95 54       	subi	r25, 0x45	; 69
    3d30:	93 30       	cpi	r25, 0x03	; 3
    3d32:	28 f4       	brcc	.+10     	; 0x3d3e <vfprintf+0x12a>
    3d34:	0c 5f       	subi	r16, 0xFC	; 252
    3d36:	1f 4f       	sbci	r17, 0xFF	; 255
    3d38:	9f e3       	ldi	r25, 0x3F	; 63
    3d3a:	99 83       	std	Y+1, r25	; 0x01
    3d3c:	0d c0       	rjmp	.+26     	; 0x3d58 <vfprintf+0x144>
    3d3e:	83 36       	cpi	r24, 0x63	; 99
    3d40:	31 f0       	breq	.+12     	; 0x3d4e <vfprintf+0x13a>
    3d42:	83 37       	cpi	r24, 0x73	; 115
    3d44:	71 f0       	breq	.+28     	; 0x3d62 <vfprintf+0x14e>
    3d46:	83 35       	cpi	r24, 0x53	; 83
    3d48:	09 f0       	breq	.+2      	; 0x3d4c <vfprintf+0x138>
    3d4a:	55 c0       	rjmp	.+170    	; 0x3df6 <vfprintf+0x1e2>
    3d4c:	20 c0       	rjmp	.+64     	; 0x3d8e <vfprintf+0x17a>
    3d4e:	f8 01       	movw	r30, r16
    3d50:	80 81       	ld	r24, Z
    3d52:	89 83       	std	Y+1, r24	; 0x01
    3d54:	0e 5f       	subi	r16, 0xFE	; 254
    3d56:	1f 4f       	sbci	r17, 0xFF	; 255
    3d58:	88 24       	eor	r8, r8
    3d5a:	83 94       	inc	r8
    3d5c:	91 2c       	mov	r9, r1
    3d5e:	53 01       	movw	r10, r6
    3d60:	12 c0       	rjmp	.+36     	; 0x3d86 <vfprintf+0x172>
    3d62:	28 01       	movw	r4, r16
    3d64:	f2 e0       	ldi	r31, 0x02	; 2
    3d66:	4f 0e       	add	r4, r31
    3d68:	51 1c       	adc	r5, r1
    3d6a:	f8 01       	movw	r30, r16
    3d6c:	a0 80       	ld	r10, Z
    3d6e:	b1 80       	ldd	r11, Z+1	; 0x01
    3d70:	36 fe       	sbrs	r3, 6
    3d72:	03 c0       	rjmp	.+6      	; 0x3d7a <vfprintf+0x166>
    3d74:	69 2d       	mov	r22, r9
    3d76:	70 e0       	ldi	r23, 0x00	; 0
    3d78:	02 c0       	rjmp	.+4      	; 0x3d7e <vfprintf+0x16a>
    3d7a:	6f ef       	ldi	r22, 0xFF	; 255
    3d7c:	7f ef       	ldi	r23, 0xFF	; 255
    3d7e:	c5 01       	movw	r24, r10
    3d80:	4b d1       	rcall	.+662    	; 0x4018 <strnlen>
    3d82:	4c 01       	movw	r8, r24
    3d84:	82 01       	movw	r16, r4
    3d86:	f3 2d       	mov	r31, r3
    3d88:	ff 77       	andi	r31, 0x7F	; 127
    3d8a:	3f 2e       	mov	r3, r31
    3d8c:	15 c0       	rjmp	.+42     	; 0x3db8 <vfprintf+0x1a4>
    3d8e:	28 01       	movw	r4, r16
    3d90:	22 e0       	ldi	r18, 0x02	; 2
    3d92:	42 0e       	add	r4, r18
    3d94:	51 1c       	adc	r5, r1
    3d96:	f8 01       	movw	r30, r16
    3d98:	a0 80       	ld	r10, Z
    3d9a:	b1 80       	ldd	r11, Z+1	; 0x01
    3d9c:	36 fe       	sbrs	r3, 6
    3d9e:	03 c0       	rjmp	.+6      	; 0x3da6 <vfprintf+0x192>
    3da0:	69 2d       	mov	r22, r9
    3da2:	70 e0       	ldi	r23, 0x00	; 0
    3da4:	02 c0       	rjmp	.+4      	; 0x3daa <vfprintf+0x196>
    3da6:	6f ef       	ldi	r22, 0xFF	; 255
    3da8:	7f ef       	ldi	r23, 0xFF	; 255
    3daa:	c5 01       	movw	r24, r10
    3dac:	2a d1       	rcall	.+596    	; 0x4002 <strnlen_P>
    3dae:	4c 01       	movw	r8, r24
    3db0:	f3 2d       	mov	r31, r3
    3db2:	f0 68       	ori	r31, 0x80	; 128
    3db4:	3f 2e       	mov	r3, r31
    3db6:	82 01       	movw	r16, r4
    3db8:	33 fc       	sbrc	r3, 3
    3dba:	19 c0       	rjmp	.+50     	; 0x3dee <vfprintf+0x1da>
    3dbc:	82 2d       	mov	r24, r2
    3dbe:	90 e0       	ldi	r25, 0x00	; 0
    3dc0:	88 16       	cp	r8, r24
    3dc2:	99 06       	cpc	r9, r25
    3dc4:	a0 f4       	brcc	.+40     	; 0x3dee <vfprintf+0x1da>
    3dc6:	b6 01       	movw	r22, r12
    3dc8:	80 e2       	ldi	r24, 0x20	; 32
    3dca:	90 e0       	ldi	r25, 0x00	; 0
    3dcc:	30 d1       	rcall	.+608    	; 0x402e <fputc>
    3dce:	2a 94       	dec	r2
    3dd0:	f5 cf       	rjmp	.-22     	; 0x3dbc <vfprintf+0x1a8>
    3dd2:	f5 01       	movw	r30, r10
    3dd4:	37 fc       	sbrc	r3, 7
    3dd6:	85 91       	lpm	r24, Z+
    3dd8:	37 fe       	sbrs	r3, 7
    3dda:	81 91       	ld	r24, Z+
    3ddc:	5f 01       	movw	r10, r30
    3dde:	b6 01       	movw	r22, r12
    3de0:	90 e0       	ldi	r25, 0x00	; 0
    3de2:	25 d1       	rcall	.+586    	; 0x402e <fputc>
    3de4:	21 10       	cpse	r2, r1
    3de6:	2a 94       	dec	r2
    3de8:	21 e0       	ldi	r18, 0x01	; 1
    3dea:	82 1a       	sub	r8, r18
    3dec:	91 08       	sbc	r9, r1
    3dee:	81 14       	cp	r8, r1
    3df0:	91 04       	cpc	r9, r1
    3df2:	79 f7       	brne	.-34     	; 0x3dd2 <vfprintf+0x1be>
    3df4:	e1 c0       	rjmp	.+450    	; 0x3fb8 <vfprintf+0x3a4>
    3df6:	84 36       	cpi	r24, 0x64	; 100
    3df8:	11 f0       	breq	.+4      	; 0x3dfe <vfprintf+0x1ea>
    3dfa:	89 36       	cpi	r24, 0x69	; 105
    3dfc:	39 f5       	brne	.+78     	; 0x3e4c <vfprintf+0x238>
    3dfe:	f8 01       	movw	r30, r16
    3e00:	37 fe       	sbrs	r3, 7
    3e02:	07 c0       	rjmp	.+14     	; 0x3e12 <vfprintf+0x1fe>
    3e04:	60 81       	ld	r22, Z
    3e06:	71 81       	ldd	r23, Z+1	; 0x01
    3e08:	82 81       	ldd	r24, Z+2	; 0x02
    3e0a:	93 81       	ldd	r25, Z+3	; 0x03
    3e0c:	0c 5f       	subi	r16, 0xFC	; 252
    3e0e:	1f 4f       	sbci	r17, 0xFF	; 255
    3e10:	08 c0       	rjmp	.+16     	; 0x3e22 <vfprintf+0x20e>
    3e12:	60 81       	ld	r22, Z
    3e14:	71 81       	ldd	r23, Z+1	; 0x01
    3e16:	07 2e       	mov	r0, r23
    3e18:	00 0c       	add	r0, r0
    3e1a:	88 0b       	sbc	r24, r24
    3e1c:	99 0b       	sbc	r25, r25
    3e1e:	0e 5f       	subi	r16, 0xFE	; 254
    3e20:	1f 4f       	sbci	r17, 0xFF	; 255
    3e22:	f3 2d       	mov	r31, r3
    3e24:	ff 76       	andi	r31, 0x6F	; 111
    3e26:	3f 2e       	mov	r3, r31
    3e28:	97 ff       	sbrs	r25, 7
    3e2a:	09 c0       	rjmp	.+18     	; 0x3e3e <vfprintf+0x22a>
    3e2c:	90 95       	com	r25
    3e2e:	80 95       	com	r24
    3e30:	70 95       	com	r23
    3e32:	61 95       	neg	r22
    3e34:	7f 4f       	sbci	r23, 0xFF	; 255
    3e36:	8f 4f       	sbci	r24, 0xFF	; 255
    3e38:	9f 4f       	sbci	r25, 0xFF	; 255
    3e3a:	f0 68       	ori	r31, 0x80	; 128
    3e3c:	3f 2e       	mov	r3, r31
    3e3e:	2a e0       	ldi	r18, 0x0A	; 10
    3e40:	30 e0       	ldi	r19, 0x00	; 0
    3e42:	a3 01       	movw	r20, r6
    3e44:	30 d1       	rcall	.+608    	; 0x40a6 <__ultoa_invert>
    3e46:	88 2e       	mov	r8, r24
    3e48:	86 18       	sub	r8, r6
    3e4a:	44 c0       	rjmp	.+136    	; 0x3ed4 <vfprintf+0x2c0>
    3e4c:	85 37       	cpi	r24, 0x75	; 117
    3e4e:	31 f4       	brne	.+12     	; 0x3e5c <vfprintf+0x248>
    3e50:	23 2d       	mov	r18, r3
    3e52:	2f 7e       	andi	r18, 0xEF	; 239
    3e54:	b2 2e       	mov	r11, r18
    3e56:	2a e0       	ldi	r18, 0x0A	; 10
    3e58:	30 e0       	ldi	r19, 0x00	; 0
    3e5a:	25 c0       	rjmp	.+74     	; 0x3ea6 <vfprintf+0x292>
    3e5c:	93 2d       	mov	r25, r3
    3e5e:	99 7f       	andi	r25, 0xF9	; 249
    3e60:	b9 2e       	mov	r11, r25
    3e62:	8f 36       	cpi	r24, 0x6F	; 111
    3e64:	c1 f0       	breq	.+48     	; 0x3e96 <vfprintf+0x282>
    3e66:	18 f4       	brcc	.+6      	; 0x3e6e <vfprintf+0x25a>
    3e68:	88 35       	cpi	r24, 0x58	; 88
    3e6a:	79 f0       	breq	.+30     	; 0x3e8a <vfprintf+0x276>
    3e6c:	ae c0       	rjmp	.+348    	; 0x3fca <vfprintf+0x3b6>
    3e6e:	80 37       	cpi	r24, 0x70	; 112
    3e70:	19 f0       	breq	.+6      	; 0x3e78 <vfprintf+0x264>
    3e72:	88 37       	cpi	r24, 0x78	; 120
    3e74:	21 f0       	breq	.+8      	; 0x3e7e <vfprintf+0x26a>
    3e76:	a9 c0       	rjmp	.+338    	; 0x3fca <vfprintf+0x3b6>
    3e78:	e9 2f       	mov	r30, r25
    3e7a:	e0 61       	ori	r30, 0x10	; 16
    3e7c:	be 2e       	mov	r11, r30
    3e7e:	b4 fe       	sbrs	r11, 4
    3e80:	0d c0       	rjmp	.+26     	; 0x3e9c <vfprintf+0x288>
    3e82:	fb 2d       	mov	r31, r11
    3e84:	f4 60       	ori	r31, 0x04	; 4
    3e86:	bf 2e       	mov	r11, r31
    3e88:	09 c0       	rjmp	.+18     	; 0x3e9c <vfprintf+0x288>
    3e8a:	34 fe       	sbrs	r3, 4
    3e8c:	0a c0       	rjmp	.+20     	; 0x3ea2 <vfprintf+0x28e>
    3e8e:	29 2f       	mov	r18, r25
    3e90:	26 60       	ori	r18, 0x06	; 6
    3e92:	b2 2e       	mov	r11, r18
    3e94:	06 c0       	rjmp	.+12     	; 0x3ea2 <vfprintf+0x28e>
    3e96:	28 e0       	ldi	r18, 0x08	; 8
    3e98:	30 e0       	ldi	r19, 0x00	; 0
    3e9a:	05 c0       	rjmp	.+10     	; 0x3ea6 <vfprintf+0x292>
    3e9c:	20 e1       	ldi	r18, 0x10	; 16
    3e9e:	30 e0       	ldi	r19, 0x00	; 0
    3ea0:	02 c0       	rjmp	.+4      	; 0x3ea6 <vfprintf+0x292>
    3ea2:	20 e1       	ldi	r18, 0x10	; 16
    3ea4:	32 e0       	ldi	r19, 0x02	; 2
    3ea6:	f8 01       	movw	r30, r16
    3ea8:	b7 fe       	sbrs	r11, 7
    3eaa:	07 c0       	rjmp	.+14     	; 0x3eba <vfprintf+0x2a6>
    3eac:	60 81       	ld	r22, Z
    3eae:	71 81       	ldd	r23, Z+1	; 0x01
    3eb0:	82 81       	ldd	r24, Z+2	; 0x02
    3eb2:	93 81       	ldd	r25, Z+3	; 0x03
    3eb4:	0c 5f       	subi	r16, 0xFC	; 252
    3eb6:	1f 4f       	sbci	r17, 0xFF	; 255
    3eb8:	06 c0       	rjmp	.+12     	; 0x3ec6 <vfprintf+0x2b2>
    3eba:	60 81       	ld	r22, Z
    3ebc:	71 81       	ldd	r23, Z+1	; 0x01
    3ebe:	80 e0       	ldi	r24, 0x00	; 0
    3ec0:	90 e0       	ldi	r25, 0x00	; 0
    3ec2:	0e 5f       	subi	r16, 0xFE	; 254
    3ec4:	1f 4f       	sbci	r17, 0xFF	; 255
    3ec6:	a3 01       	movw	r20, r6
    3ec8:	ee d0       	rcall	.+476    	; 0x40a6 <__ultoa_invert>
    3eca:	88 2e       	mov	r8, r24
    3ecc:	86 18       	sub	r8, r6
    3ece:	fb 2d       	mov	r31, r11
    3ed0:	ff 77       	andi	r31, 0x7F	; 127
    3ed2:	3f 2e       	mov	r3, r31
    3ed4:	36 fe       	sbrs	r3, 6
    3ed6:	0d c0       	rjmp	.+26     	; 0x3ef2 <vfprintf+0x2de>
    3ed8:	23 2d       	mov	r18, r3
    3eda:	2e 7f       	andi	r18, 0xFE	; 254
    3edc:	a2 2e       	mov	r10, r18
    3ede:	89 14       	cp	r8, r9
    3ee0:	58 f4       	brcc	.+22     	; 0x3ef8 <vfprintf+0x2e4>
    3ee2:	34 fe       	sbrs	r3, 4
    3ee4:	0b c0       	rjmp	.+22     	; 0x3efc <vfprintf+0x2e8>
    3ee6:	32 fc       	sbrc	r3, 2
    3ee8:	09 c0       	rjmp	.+18     	; 0x3efc <vfprintf+0x2e8>
    3eea:	83 2d       	mov	r24, r3
    3eec:	8e 7e       	andi	r24, 0xEE	; 238
    3eee:	a8 2e       	mov	r10, r24
    3ef0:	05 c0       	rjmp	.+10     	; 0x3efc <vfprintf+0x2e8>
    3ef2:	b8 2c       	mov	r11, r8
    3ef4:	a3 2c       	mov	r10, r3
    3ef6:	03 c0       	rjmp	.+6      	; 0x3efe <vfprintf+0x2ea>
    3ef8:	b8 2c       	mov	r11, r8
    3efa:	01 c0       	rjmp	.+2      	; 0x3efe <vfprintf+0x2ea>
    3efc:	b9 2c       	mov	r11, r9
    3efe:	a4 fe       	sbrs	r10, 4
    3f00:	0f c0       	rjmp	.+30     	; 0x3f20 <vfprintf+0x30c>
    3f02:	fe 01       	movw	r30, r28
    3f04:	e8 0d       	add	r30, r8
    3f06:	f1 1d       	adc	r31, r1
    3f08:	80 81       	ld	r24, Z
    3f0a:	80 33       	cpi	r24, 0x30	; 48
    3f0c:	21 f4       	brne	.+8      	; 0x3f16 <vfprintf+0x302>
    3f0e:	9a 2d       	mov	r25, r10
    3f10:	99 7e       	andi	r25, 0xE9	; 233
    3f12:	a9 2e       	mov	r10, r25
    3f14:	09 c0       	rjmp	.+18     	; 0x3f28 <vfprintf+0x314>
    3f16:	a2 fe       	sbrs	r10, 2
    3f18:	06 c0       	rjmp	.+12     	; 0x3f26 <vfprintf+0x312>
    3f1a:	b3 94       	inc	r11
    3f1c:	b3 94       	inc	r11
    3f1e:	04 c0       	rjmp	.+8      	; 0x3f28 <vfprintf+0x314>
    3f20:	8a 2d       	mov	r24, r10
    3f22:	86 78       	andi	r24, 0x86	; 134
    3f24:	09 f0       	breq	.+2      	; 0x3f28 <vfprintf+0x314>
    3f26:	b3 94       	inc	r11
    3f28:	a3 fc       	sbrc	r10, 3
    3f2a:	10 c0       	rjmp	.+32     	; 0x3f4c <vfprintf+0x338>
    3f2c:	a0 fe       	sbrs	r10, 0
    3f2e:	06 c0       	rjmp	.+12     	; 0x3f3c <vfprintf+0x328>
    3f30:	b2 14       	cp	r11, r2
    3f32:	80 f4       	brcc	.+32     	; 0x3f54 <vfprintf+0x340>
    3f34:	28 0c       	add	r2, r8
    3f36:	92 2c       	mov	r9, r2
    3f38:	9b 18       	sub	r9, r11
    3f3a:	0d c0       	rjmp	.+26     	; 0x3f56 <vfprintf+0x342>
    3f3c:	b2 14       	cp	r11, r2
    3f3e:	58 f4       	brcc	.+22     	; 0x3f56 <vfprintf+0x342>
    3f40:	b6 01       	movw	r22, r12
    3f42:	80 e2       	ldi	r24, 0x20	; 32
    3f44:	90 e0       	ldi	r25, 0x00	; 0
    3f46:	73 d0       	rcall	.+230    	; 0x402e <fputc>
    3f48:	b3 94       	inc	r11
    3f4a:	f8 cf       	rjmp	.-16     	; 0x3f3c <vfprintf+0x328>
    3f4c:	b2 14       	cp	r11, r2
    3f4e:	18 f4       	brcc	.+6      	; 0x3f56 <vfprintf+0x342>
    3f50:	2b 18       	sub	r2, r11
    3f52:	02 c0       	rjmp	.+4      	; 0x3f58 <vfprintf+0x344>
    3f54:	98 2c       	mov	r9, r8
    3f56:	21 2c       	mov	r2, r1
    3f58:	a4 fe       	sbrs	r10, 4
    3f5a:	0f c0       	rjmp	.+30     	; 0x3f7a <vfprintf+0x366>
    3f5c:	b6 01       	movw	r22, r12
    3f5e:	80 e3       	ldi	r24, 0x30	; 48
    3f60:	90 e0       	ldi	r25, 0x00	; 0
    3f62:	65 d0       	rcall	.+202    	; 0x402e <fputc>
    3f64:	a2 fe       	sbrs	r10, 2
    3f66:	16 c0       	rjmp	.+44     	; 0x3f94 <vfprintf+0x380>
    3f68:	a1 fc       	sbrc	r10, 1
    3f6a:	03 c0       	rjmp	.+6      	; 0x3f72 <vfprintf+0x35e>
    3f6c:	88 e7       	ldi	r24, 0x78	; 120
    3f6e:	90 e0       	ldi	r25, 0x00	; 0
    3f70:	02 c0       	rjmp	.+4      	; 0x3f76 <vfprintf+0x362>
    3f72:	88 e5       	ldi	r24, 0x58	; 88
    3f74:	90 e0       	ldi	r25, 0x00	; 0
    3f76:	b6 01       	movw	r22, r12
    3f78:	0c c0       	rjmp	.+24     	; 0x3f92 <vfprintf+0x37e>
    3f7a:	8a 2d       	mov	r24, r10
    3f7c:	86 78       	andi	r24, 0x86	; 134
    3f7e:	51 f0       	breq	.+20     	; 0x3f94 <vfprintf+0x380>
    3f80:	a1 fe       	sbrs	r10, 1
    3f82:	02 c0       	rjmp	.+4      	; 0x3f88 <vfprintf+0x374>
    3f84:	8b e2       	ldi	r24, 0x2B	; 43
    3f86:	01 c0       	rjmp	.+2      	; 0x3f8a <vfprintf+0x376>
    3f88:	80 e2       	ldi	r24, 0x20	; 32
    3f8a:	a7 fc       	sbrc	r10, 7
    3f8c:	8d e2       	ldi	r24, 0x2D	; 45
    3f8e:	b6 01       	movw	r22, r12
    3f90:	90 e0       	ldi	r25, 0x00	; 0
    3f92:	4d d0       	rcall	.+154    	; 0x402e <fputc>
    3f94:	89 14       	cp	r8, r9
    3f96:	30 f4       	brcc	.+12     	; 0x3fa4 <vfprintf+0x390>
    3f98:	b6 01       	movw	r22, r12
    3f9a:	80 e3       	ldi	r24, 0x30	; 48
    3f9c:	90 e0       	ldi	r25, 0x00	; 0
    3f9e:	47 d0       	rcall	.+142    	; 0x402e <fputc>
    3fa0:	9a 94       	dec	r9
    3fa2:	f8 cf       	rjmp	.-16     	; 0x3f94 <vfprintf+0x380>
    3fa4:	8a 94       	dec	r8
    3fa6:	f3 01       	movw	r30, r6
    3fa8:	e8 0d       	add	r30, r8
    3faa:	f1 1d       	adc	r31, r1
    3fac:	80 81       	ld	r24, Z
    3fae:	b6 01       	movw	r22, r12
    3fb0:	90 e0       	ldi	r25, 0x00	; 0
    3fb2:	3d d0       	rcall	.+122    	; 0x402e <fputc>
    3fb4:	81 10       	cpse	r8, r1
    3fb6:	f6 cf       	rjmp	.-20     	; 0x3fa4 <vfprintf+0x390>
    3fb8:	22 20       	and	r2, r2
    3fba:	09 f4       	brne	.+2      	; 0x3fbe <vfprintf+0x3aa>
    3fbc:	4e ce       	rjmp	.-868    	; 0x3c5a <vfprintf+0x46>
    3fbe:	b6 01       	movw	r22, r12
    3fc0:	80 e2       	ldi	r24, 0x20	; 32
    3fc2:	90 e0       	ldi	r25, 0x00	; 0
    3fc4:	34 d0       	rcall	.+104    	; 0x402e <fputc>
    3fc6:	2a 94       	dec	r2
    3fc8:	f7 cf       	rjmp	.-18     	; 0x3fb8 <vfprintf+0x3a4>
    3fca:	f6 01       	movw	r30, r12
    3fcc:	86 81       	ldd	r24, Z+6	; 0x06
    3fce:	97 81       	ldd	r25, Z+7	; 0x07
    3fd0:	02 c0       	rjmp	.+4      	; 0x3fd6 <vfprintf+0x3c2>
    3fd2:	8f ef       	ldi	r24, 0xFF	; 255
    3fd4:	9f ef       	ldi	r25, 0xFF	; 255
    3fd6:	2b 96       	adiw	r28, 0x0b	; 11
    3fd8:	cd bf       	out	0x3d, r28	; 61
    3fda:	de bf       	out	0x3e, r29	; 62
    3fdc:	df 91       	pop	r29
    3fde:	cf 91       	pop	r28
    3fe0:	1f 91       	pop	r17
    3fe2:	0f 91       	pop	r16
    3fe4:	ff 90       	pop	r15
    3fe6:	ef 90       	pop	r14
    3fe8:	df 90       	pop	r13
    3fea:	cf 90       	pop	r12
    3fec:	bf 90       	pop	r11
    3fee:	af 90       	pop	r10
    3ff0:	9f 90       	pop	r9
    3ff2:	8f 90       	pop	r8
    3ff4:	7f 90       	pop	r7
    3ff6:	6f 90       	pop	r6
    3ff8:	5f 90       	pop	r5
    3ffa:	4f 90       	pop	r4
    3ffc:	3f 90       	pop	r3
    3ffe:	2f 90       	pop	r2
    4000:	08 95       	ret

00004002 <strnlen_P>:
    4002:	fc 01       	movw	r30, r24
    4004:	05 90       	lpm	r0, Z+
    4006:	61 50       	subi	r22, 0x01	; 1
    4008:	70 40       	sbci	r23, 0x00	; 0
    400a:	01 10       	cpse	r0, r1
    400c:	d8 f7       	brcc	.-10     	; 0x4004 <strnlen_P+0x2>
    400e:	80 95       	com	r24
    4010:	90 95       	com	r25
    4012:	8e 0f       	add	r24, r30
    4014:	9f 1f       	adc	r25, r31
    4016:	08 95       	ret

00004018 <strnlen>:
    4018:	fc 01       	movw	r30, r24
    401a:	61 50       	subi	r22, 0x01	; 1
    401c:	70 40       	sbci	r23, 0x00	; 0
    401e:	01 90       	ld	r0, Z+
    4020:	01 10       	cpse	r0, r1
    4022:	d8 f7       	brcc	.-10     	; 0x401a <strnlen+0x2>
    4024:	80 95       	com	r24
    4026:	90 95       	com	r25
    4028:	8e 0f       	add	r24, r30
    402a:	9f 1f       	adc	r25, r31
    402c:	08 95       	ret

0000402e <fputc>:
    402e:	0f 93       	push	r16
    4030:	1f 93       	push	r17
    4032:	cf 93       	push	r28
    4034:	df 93       	push	r29
    4036:	fb 01       	movw	r30, r22
    4038:	23 81       	ldd	r18, Z+3	; 0x03
    403a:	21 fd       	sbrc	r18, 1
    403c:	03 c0       	rjmp	.+6      	; 0x4044 <fputc+0x16>
    403e:	8f ef       	ldi	r24, 0xFF	; 255
    4040:	9f ef       	ldi	r25, 0xFF	; 255
    4042:	2c c0       	rjmp	.+88     	; 0x409c <fputc+0x6e>
    4044:	22 ff       	sbrs	r18, 2
    4046:	16 c0       	rjmp	.+44     	; 0x4074 <fputc+0x46>
    4048:	46 81       	ldd	r20, Z+6	; 0x06
    404a:	57 81       	ldd	r21, Z+7	; 0x07
    404c:	24 81       	ldd	r18, Z+4	; 0x04
    404e:	35 81       	ldd	r19, Z+5	; 0x05
    4050:	42 17       	cp	r20, r18
    4052:	53 07       	cpc	r21, r19
    4054:	44 f4       	brge	.+16     	; 0x4066 <fputc+0x38>
    4056:	a0 81       	ld	r26, Z
    4058:	b1 81       	ldd	r27, Z+1	; 0x01
    405a:	9d 01       	movw	r18, r26
    405c:	2f 5f       	subi	r18, 0xFF	; 255
    405e:	3f 4f       	sbci	r19, 0xFF	; 255
    4060:	20 83       	st	Z, r18
    4062:	31 83       	std	Z+1, r19	; 0x01
    4064:	8c 93       	st	X, r24
    4066:	26 81       	ldd	r18, Z+6	; 0x06
    4068:	37 81       	ldd	r19, Z+7	; 0x07
    406a:	2f 5f       	subi	r18, 0xFF	; 255
    406c:	3f 4f       	sbci	r19, 0xFF	; 255
    406e:	26 83       	std	Z+6, r18	; 0x06
    4070:	37 83       	std	Z+7, r19	; 0x07
    4072:	14 c0       	rjmp	.+40     	; 0x409c <fputc+0x6e>
    4074:	8b 01       	movw	r16, r22
    4076:	ec 01       	movw	r28, r24
    4078:	fb 01       	movw	r30, r22
    407a:	00 84       	ldd	r0, Z+8	; 0x08
    407c:	f1 85       	ldd	r31, Z+9	; 0x09
    407e:	e0 2d       	mov	r30, r0
    4080:	19 95       	eicall
    4082:	89 2b       	or	r24, r25
    4084:	e1 f6       	brne	.-72     	; 0x403e <fputc+0x10>
    4086:	d8 01       	movw	r26, r16
    4088:	16 96       	adiw	r26, 0x06	; 6
    408a:	8d 91       	ld	r24, X+
    408c:	9c 91       	ld	r25, X
    408e:	17 97       	sbiw	r26, 0x07	; 7
    4090:	01 96       	adiw	r24, 0x01	; 1
    4092:	16 96       	adiw	r26, 0x06	; 6
    4094:	8d 93       	st	X+, r24
    4096:	9c 93       	st	X, r25
    4098:	17 97       	sbiw	r26, 0x07	; 7
    409a:	ce 01       	movw	r24, r28
    409c:	df 91       	pop	r29
    409e:	cf 91       	pop	r28
    40a0:	1f 91       	pop	r17
    40a2:	0f 91       	pop	r16
    40a4:	08 95       	ret

000040a6 <__ultoa_invert>:
    40a6:	fa 01       	movw	r30, r20
    40a8:	aa 27       	eor	r26, r26
    40aa:	28 30       	cpi	r18, 0x08	; 8
    40ac:	51 f1       	breq	.+84     	; 0x4102 <__ultoa_invert+0x5c>
    40ae:	20 31       	cpi	r18, 0x10	; 16
    40b0:	81 f1       	breq	.+96     	; 0x4112 <__ultoa_invert+0x6c>
    40b2:	e8 94       	clt
    40b4:	6f 93       	push	r22
    40b6:	6e 7f       	andi	r22, 0xFE	; 254
    40b8:	6e 5f       	subi	r22, 0xFE	; 254
    40ba:	7f 4f       	sbci	r23, 0xFF	; 255
    40bc:	8f 4f       	sbci	r24, 0xFF	; 255
    40be:	9f 4f       	sbci	r25, 0xFF	; 255
    40c0:	af 4f       	sbci	r26, 0xFF	; 255
    40c2:	b1 e0       	ldi	r27, 0x01	; 1
    40c4:	3e d0       	rcall	.+124    	; 0x4142 <__ultoa_invert+0x9c>
    40c6:	b4 e0       	ldi	r27, 0x04	; 4
    40c8:	3c d0       	rcall	.+120    	; 0x4142 <__ultoa_invert+0x9c>
    40ca:	67 0f       	add	r22, r23
    40cc:	78 1f       	adc	r23, r24
    40ce:	89 1f       	adc	r24, r25
    40d0:	9a 1f       	adc	r25, r26
    40d2:	a1 1d       	adc	r26, r1
    40d4:	68 0f       	add	r22, r24
    40d6:	79 1f       	adc	r23, r25
    40d8:	8a 1f       	adc	r24, r26
    40da:	91 1d       	adc	r25, r1
    40dc:	a1 1d       	adc	r26, r1
    40de:	6a 0f       	add	r22, r26
    40e0:	71 1d       	adc	r23, r1
    40e2:	81 1d       	adc	r24, r1
    40e4:	91 1d       	adc	r25, r1
    40e6:	a1 1d       	adc	r26, r1
    40e8:	20 d0       	rcall	.+64     	; 0x412a <__ultoa_invert+0x84>
    40ea:	09 f4       	brne	.+2      	; 0x40ee <__ultoa_invert+0x48>
    40ec:	68 94       	set
    40ee:	3f 91       	pop	r19
    40f0:	2a e0       	ldi	r18, 0x0A	; 10
    40f2:	26 9f       	mul	r18, r22
    40f4:	11 24       	eor	r1, r1
    40f6:	30 19       	sub	r19, r0
    40f8:	30 5d       	subi	r19, 0xD0	; 208
    40fa:	31 93       	st	Z+, r19
    40fc:	de f6       	brtc	.-74     	; 0x40b4 <__ultoa_invert+0xe>
    40fe:	cf 01       	movw	r24, r30
    4100:	08 95       	ret
    4102:	46 2f       	mov	r20, r22
    4104:	47 70       	andi	r20, 0x07	; 7
    4106:	40 5d       	subi	r20, 0xD0	; 208
    4108:	41 93       	st	Z+, r20
    410a:	b3 e0       	ldi	r27, 0x03	; 3
    410c:	0f d0       	rcall	.+30     	; 0x412c <__ultoa_invert+0x86>
    410e:	c9 f7       	brne	.-14     	; 0x4102 <__ultoa_invert+0x5c>
    4110:	f6 cf       	rjmp	.-20     	; 0x40fe <__ultoa_invert+0x58>
    4112:	46 2f       	mov	r20, r22
    4114:	4f 70       	andi	r20, 0x0F	; 15
    4116:	40 5d       	subi	r20, 0xD0	; 208
    4118:	4a 33       	cpi	r20, 0x3A	; 58
    411a:	18 f0       	brcs	.+6      	; 0x4122 <__ultoa_invert+0x7c>
    411c:	49 5d       	subi	r20, 0xD9	; 217
    411e:	31 fd       	sbrc	r19, 1
    4120:	40 52       	subi	r20, 0x20	; 32
    4122:	41 93       	st	Z+, r20
    4124:	02 d0       	rcall	.+4      	; 0x412a <__ultoa_invert+0x84>
    4126:	a9 f7       	brne	.-22     	; 0x4112 <__ultoa_invert+0x6c>
    4128:	ea cf       	rjmp	.-44     	; 0x40fe <__ultoa_invert+0x58>
    412a:	b4 e0       	ldi	r27, 0x04	; 4
    412c:	a6 95       	lsr	r26
    412e:	97 95       	ror	r25
    4130:	87 95       	ror	r24
    4132:	77 95       	ror	r23
    4134:	67 95       	ror	r22
    4136:	ba 95       	dec	r27
    4138:	c9 f7       	brne	.-14     	; 0x412c <__ultoa_invert+0x86>
    413a:	00 97       	sbiw	r24, 0x00	; 0
    413c:	61 05       	cpc	r22, r1
    413e:	71 05       	cpc	r23, r1
    4140:	08 95       	ret
    4142:	9b 01       	movw	r18, r22
    4144:	ac 01       	movw	r20, r24
    4146:	0a 2e       	mov	r0, r26
    4148:	06 94       	lsr	r0
    414a:	57 95       	ror	r21
    414c:	47 95       	ror	r20
    414e:	37 95       	ror	r19
    4150:	27 95       	ror	r18
    4152:	ba 95       	dec	r27
    4154:	c9 f7       	brne	.-14     	; 0x4148 <__ultoa_invert+0xa2>
    4156:	62 0f       	add	r22, r18
    4158:	73 1f       	adc	r23, r19
    415a:	84 1f       	adc	r24, r20
    415c:	95 1f       	adc	r25, r21
    415e:	a0 1d       	adc	r26, r0
    4160:	08 95       	ret

00004162 <_exit>:
    4162:	f8 94       	cli

00004164 <__stop_program>:
    4164:	ff cf       	rjmp	.-2      	; 0x4164 <__stop_program>
